	.file	"1509.cpp"
	.text
.Ltext0:
	.file 0 "/home/razmik/git/leetcode/1509" "1509.cpp"
	.section	.text._ZSt21is_constant_evaluatedv,"axG",@progbits,_ZSt21is_constant_evaluatedv,comdat
	.weak	_ZSt21is_constant_evaluatedv
	.type	_ZSt21is_constant_evaluatedv, @function
_ZSt21is_constant_evaluatedv:
.LFB53:
	.file 1 "/usr/include/c++/11/type_traits"
	.loc 1 3420 3
	.cfi_startproc
	endbr64
	pushq	%rbp
	.cfi_def_cfa_offset 16
	.cfi_offset 6, -16
	movq	%rsp, %rbp
	.cfi_def_cfa_register 6
	.loc 1 3420 44
	movl	$0, %eax
	.loc 1 3420 47
	popq	%rbp
	.cfi_def_cfa 7, 8
	ret
	.cfi_endproc
.LFE53:
	.size	_ZSt21is_constant_evaluatedv, .-_ZSt21is_constant_evaluatedv
	.section	.text._ZN9__gnu_cxx5__ops16__iter_less_iterEv,"axG",@progbits,_ZN9__gnu_cxx5__ops16__iter_less_iterEv,comdat
	.weak	_ZN9__gnu_cxx5__ops16__iter_less_iterEv
	.type	_ZN9__gnu_cxx5__ops16__iter_less_iterEv, @function
_ZN9__gnu_cxx5__ops16__iter_less_iterEv:
.LFB443:
	.file 2 "/usr/include/c++/11/bits/predefined_ops.h"
	.loc 2 51 3
	.cfi_startproc
	endbr64
	pushq	%rbp
	.cfi_def_cfa_offset 16
	.cfi_offset 6, -16
	movq	%rsp, %rbp
	.cfi_def_cfa_register 6
	.loc 2 51 28
	nop
	.loc 2 51 31
	popq	%rbp
	.cfi_def_cfa 7, 8
	ret
	.cfi_endproc
.LFE443:
	.size	_ZN9__gnu_cxx5__ops16__iter_less_iterEv, .-_ZN9__gnu_cxx5__ops16__iter_less_iterEv
	.local	_ZStL8__ioinit
	.comm	_ZStL8__ioinit,1,1
	.section	.text._ZSt3minImERKT_S2_S2_,"axG",@progbits,_ZSt3minImERKT_S2_S2_,comdat
	.weak	_ZSt3minImERKT_S2_S2_
	.type	_ZSt3minImERKT_S2_S2_, @function
_ZSt3minImERKT_S2_S2_:
.LFB3258:
	.file 3 "/usr/include/c++/11/bits/stl_algobase.h"
	.loc 3 230 5
	.cfi_startproc
	endbr64
	pushq	%rbp
	.cfi_def_cfa_offset 16
	.cfi_offset 6, -16
	movq	%rsp, %rbp
	.cfi_def_cfa_register 6
	movq	%rdi, -8(%rbp)
	movq	%rsi, -16(%rbp)
	.loc 3 235 15
	movq	-16(%rbp), %rax
	movq	(%rax), %rdx
	movq	-8(%rbp), %rax
	movq	(%rax), %rax
	.loc 3 235 7
	cmpq	%rax, %rdx
	jnb	.L6
	.loc 3 236 9
	movq	-16(%rbp), %rax
	jmp	.L7
.L6:
	.loc 3 237 14
	movq	-8(%rbp), %rax
.L7:
	.loc 3 238 5
	popq	%rbp
	.cfi_def_cfa 7, 8
	ret
	.cfi_endproc
.LFE3258:
	.size	_ZSt3minImERKT_S2_S2_, .-_ZSt3minImERKT_S2_S2_
	.section	.rodata
	.type	_ZN6__pstl9execution2v1L3seqE, @object
	.size	_ZN6__pstl9execution2v1L3seqE, 1
_ZN6__pstl9execution2v1L3seqE:
	.zero	1
	.type	_ZN6__pstl9execution2v1L3parE, @object
	.size	_ZN6__pstl9execution2v1L3parE, 1
_ZN6__pstl9execution2v1L3parE:
	.zero	1
	.type	_ZN6__pstl9execution2v1L9par_unseqE, @object
	.size	_ZN6__pstl9execution2v1L9par_unseqE, 1
_ZN6__pstl9execution2v1L9par_unseqE:
	.zero	1
	.type	_ZN6__pstl9execution2v1L5unseqE, @object
	.size	_ZN6__pstl9execution2v1L5unseqE, 1
_ZN6__pstl9execution2v1L5unseqE:
	.zero	1
	.section	.text._ZN8Solution6mySortERSt6vectorIiSaIiEE,"axG",@progbits,_ZN8Solution6mySortERSt6vectorIiSaIiEE,comdat
	.align 2
	.weak	_ZN8Solution6mySortERSt6vectorIiSaIiEE
	.type	_ZN8Solution6mySortERSt6vectorIiSaIiEE, @function
_ZN8Solution6mySortERSt6vectorIiSaIiEE:
.LFB3766:
	.file 4 "1509.cpp"
	.loc 4 29 10
	.cfi_startproc
	endbr64
	pushq	%rbp
	.cfi_def_cfa_offset 16
	.cfi_offset 6, -16
	movq	%rsp, %rbp
	.cfi_def_cfa_register 6
	pushq	%rbx
	subq	$40, %rsp
	.cfi_offset 3, -24
	movq	%rdi, -40(%rbp)
	movq	%rsi, -48(%rbp)
	.loc 4 30 23
	movq	-48(%rbp), %rax
	movq	%rax, %rdi
	call	_ZNKSt6vectorIiSaIiEE4sizeEv
	.loc 4 30 26
	subl	$1, %eax
	.loc 4 30 28
	movl	%eax, -20(%rbp)
.LBB6:
	.loc 4 31 17
	movl	$0, -32(%rbp)
	.loc 4 31 9
	jmp	.L9
.L16:
.LBB7:
.LBB8:
	.loc 4 32 21
	movl	$0, -28(%rbp)
	.loc 4 32 13
	jmp	.L10
.L12:
	.loc 4 33 23
	movl	-28(%rbp), %eax
	movslq	%eax, %rdx
	movq	-48(%rbp), %rax
	movq	%rdx, %rsi
	movq	%rax, %rdi
	call	_ZNSt6vectorIiSaIiEEixEm
	.loc 4 33 25
	movl	(%rax), %ebx
	.loc 4 33 30
	movl	-28(%rbp), %eax
	addl	$1, %eax
	.loc 4 33 32
	movslq	%eax, %rdx
	movq	-48(%rbp), %rax
	movq	%rdx, %rsi
	movq	%rax, %rdi
	call	_ZNSt6vectorIiSaIiEEixEm
	.loc 4 33 25
	movl	(%rax), %eax
	cmpl	%eax, %ebx
	setg	%al
	.loc 4 33 17
	testb	%al, %al
	je	.L11
	.loc 4 34 40
	movl	-28(%rbp), %eax
	addl	$1, %eax
	.loc 4 34 42
	movslq	%eax, %rdx
	movq	-48(%rbp), %rax
	movq	%rdx, %rsi
	movq	%rax, %rdi
	call	_ZNSt6vectorIiSaIiEEixEm
	movq	%rax, %rbx
	.loc 4 34 34
	movl	-28(%rbp), %eax
	movslq	%eax, %rdx
	movq	-48(%rbp), %rax
	movq	%rdx, %rsi
	movq	%rax, %rdi
	call	_ZNSt6vectorIiSaIiEEixEm
	.loc 4 34 30
	movq	%rbx, %rsi
	movq	%rax, %rdi
	call	_ZSt4swapIiENSt9enable_ifIXsrSt6__and_IJSt6__not_ISt15__is_tuple_likeIT_EESt21is_move_constructibleIS4_ESt18is_move_assignableIS4_EEE5valueEvE4typeERS4_SE_
.L11:
	.loc 4 32 13 discriminator 2
	addl	$1, -28(%rbp)
.L10:
	.loc 4 32 30 discriminator 1
	movl	-28(%rbp), %eax
	cmpl	-20(%rbp), %eax
	jl	.L12
.LBE8:
.LBB9:
	.loc 4 37 21
	movl	-20(%rbp), %eax
	subl	$1, %eax
	movl	%eax, -24(%rbp)
	.loc 4 37 13
	jmp	.L13
.L15:
	.loc 4 38 23
	movl	-24(%rbp), %eax
	movslq	%eax, %rdx
	movq	-48(%rbp), %rax
	movq	%rdx, %rsi
	movq	%rax, %rdi
	call	_ZNSt6vectorIiSaIiEEixEm
	.loc 4 38 25
	movl	(%rax), %ebx
	.loc 4 38 31
	movl	-24(%rbp), %eax
	subl	$1, %eax
	.loc 4 38 34
	movslq	%eax, %rdx
	movq	-48(%rbp), %rax
	movq	%rdx, %rsi
	movq	%rax, %rdi
	call	_ZNSt6vectorIiSaIiEEixEm
	.loc 4 38 25
	movl	(%rax), %eax
	cmpl	%eax, %ebx
	setl	%al
	.loc 4 38 17
	testb	%al, %al
	je	.L14
	.loc 4 39 41
	movl	-24(%rbp), %eax
	subl	$1, %eax
	.loc 4 39 44
	movslq	%eax, %rdx
	movq	-48(%rbp), %rax
	movq	%rdx, %rsi
	movq	%rax, %rdi
	call	_ZNSt6vectorIiSaIiEEixEm
	movq	%rax, %rbx
	.loc 4 39 34
	movl	-24(%rbp), %eax
	movslq	%eax, %rdx
	movq	-48(%rbp), %rax
	movq	%rdx, %rsi
	movq	%rax, %rdi
	call	_ZNSt6vectorIiSaIiEEixEm
	.loc 4 39 30
	movq	%rbx, %rsi
	movq	%rax, %rdi
	call	_ZSt4swapIiENSt9enable_ifIXsrSt6__and_IJSt6__not_ISt15__is_tuple_likeIT_EESt21is_move_constructibleIS4_ESt18is_move_assignableIS4_EEE5valueEvE4typeERS4_SE_
.L14:
	.loc 4 37 13 discriminator 2
	subl	$1, -24(%rbp)
.L13:
	.loc 4 37 32 discriminator 1
	cmpl	$0, -24(%rbp)
	jns	.L15
.LBE9:
.LBE7:
	.loc 4 31 9 discriminator 2
	addl	$1, -32(%rbp)
.L9:
	.loc 4 31 26 discriminator 1
	cmpl	$3, -32(%rbp)
	jle	.L16
.LBE6:
	.loc 4 44 5
	nop
	nop
	movq	-8(%rbp), %rbx
	leave
	.cfi_def_cfa 7, 8
	ret
	.cfi_endproc
.LFE3766:
	.size	_ZN8Solution6mySortERSt6vectorIiSaIiEE, .-_ZN8Solution6mySortERSt6vectorIiSaIiEE
	.section	.text._ZN8Solution13minDifferenceERSt6vectorIiSaIiEE,"axG",@progbits,_ZN8Solution13minDifferenceERSt6vectorIiSaIiEE,comdat
	.align 2
	.weak	_ZN8Solution13minDifferenceERSt6vectorIiSaIiEE
	.type	_ZN8Solution13minDifferenceERSt6vectorIiSaIiEE, @function
_ZN8Solution13minDifferenceERSt6vectorIiSaIiEE:
.LFB3768:
	.loc 4 46 9
	.cfi_startproc
	endbr64
	pushq	%rbp
	.cfi_def_cfa_offset 16
	.cfi_offset 6, -16
	movq	%rsp, %rbp
	.cfi_def_cfa_register 6
	pushq	%r13
	pushq	%r12
	pushq	%rbx
	subq	$72, %rsp
	.cfi_offset 13, -24
	.cfi_offset 12, -32
	.cfi_offset 3, -40
	movq	%rdi, -88(%rbp)
	movq	%rsi, -96(%rbp)
	.loc 4 46 9
	movq	%fs:40, %rax
	movq	%rax, -40(%rbp)
	xorl	%eax, %eax
	.loc 4 47 23
	movq	-96(%rbp), %rax
	movq	%rax, %rdi
	call	_ZNKSt6vectorIiSaIiEE4sizeEv
	.loc 4 47 24
	movl	%eax, -68(%rbp)
	.loc 4 48 9
	cmpl	$4, -68(%rbp)
	jg	.L18
	.loc 4 48 27 discriminator 1
	movl	$0, %eax
	jmp	.L19
.L18:
	.loc 4 49 15
	movq	-96(%rbp), %rdx
	movq	-88(%rbp), %rax
	movq	%rdx, %rsi
	movq	%rax, %rdi
	call	_ZN8Solution6mySortERSt6vectorIiSaIiEE
	.loc 4 50 25
	movl	-68(%rbp), %eax
	subl	$1, %eax
	.loc 4 50 28
	movslq	%eax, %rdx
	movq	-96(%rbp), %rax
	movq	%rdx, %rsi
	movq	%rax, %rdi
	call	_ZNSt6vectorIiSaIiEEixEm
	.loc 4 50 30
	movl	(%rax), %ebx
	.loc 4 50 35
	movq	-96(%rbp), %rax
	movl	$3, %esi
	movq	%rax, %rdi
	call	_ZNSt6vectorIiSaIiEEixEm
	.loc 4 50 30
	movl	(%rax), %edx
	movl	%ebx, %eax
	subl	%edx, %eax
	.loc 4 50 19
	movl	%eax, -64(%rbp)
	.loc 4 50 42
	movl	-68(%rbp), %eax
	subl	$2, %eax
	.loc 4 50 45
	movslq	%eax, %rdx
	movq	-96(%rbp), %rax
	movq	%rdx, %rsi
	movq	%rax, %rdi
	call	_ZNSt6vectorIiSaIiEEixEm
	.loc 4 50 47
	movl	(%rax), %ebx
	.loc 4 50 52
	movq	-96(%rbp), %rax
	movl	$2, %esi
	movq	%rax, %rdi
	call	_ZNSt6vectorIiSaIiEEixEm
	.loc 4 50 47
	movl	(%rax), %edx
	movl	%ebx, %eax
	subl	%edx, %eax
	.loc 4 50 19
	movl	%eax, -60(%rbp)
	.loc 4 50 59
	movl	-68(%rbp), %eax
	subl	$3, %eax
	.loc 4 50 62
	movslq	%eax, %rdx
	movq	-96(%rbp), %rax
	movq	%rdx, %rsi
	movq	%rax, %rdi
	call	_ZNSt6vectorIiSaIiEEixEm
	.loc 4 50 64
	movl	(%rax), %ebx
	.loc 4 50 69
	movq	-96(%rbp), %rax
	movl	$1, %esi
	movq	%rax, %rdi
	call	_ZNSt6vectorIiSaIiEEixEm
	.loc 4 50 64
	movl	(%rax), %edx
	movl	%ebx, %eax
	subl	%edx, %eax
	.loc 4 50 19
	movl	%eax, -56(%rbp)
	.loc 4 50 76
	movl	-68(%rbp), %eax
	subl	$4, %eax
	.loc 4 50 79
	movslq	%eax, %rdx
	movq	-96(%rbp), %rax
	movq	%rdx, %rsi
	movq	%rax, %rdi
	call	_ZNSt6vectorIiSaIiEEixEm
	.loc 4 50 81
	movl	(%rax), %ebx
	.loc 4 50 86
	movq	-96(%rbp), %rax
	movl	$0, %esi
	movq	%rax, %rdi
	call	_ZNSt6vectorIiSaIiEEixEm
	.loc 4 50 81
	movl	(%rax), %edx
	movl	%ebx, %eax
	subl	%edx, %eax
	.loc 4 50 19
	movl	%eax, -52(%rbp)
	leaq	-64(%rbp), %rax
	movq	%rax, %r12
	movl	$4, %r13d
	movq	%r12, %rcx
	movq	%r13, %rbx
	movq	%r12, %rax
	movq	%r13, %rdx
	movq	%rdx, %rax
	movq	%rcx, %rdi
	movq	%rax, %rsi
	call	_ZSt3minIiET_St16initializer_listIS0_E
	.loc 4 50 88
	nop
.L19:
	.loc 4 51 5
	movq	-40(%rbp), %rdx
	subq	%fs:40, %rdx
	je	.L20
	call	__stack_chk_fail@PLT
.L20:
	addq	$72, %rsp
	popq	%rbx
	popq	%r12
	popq	%r13
	popq	%rbp
	.cfi_def_cfa 7, 8
	ret
	.cfi_endproc
.LFE3768:
	.size	_ZN8Solution13minDifferenceERSt6vectorIiSaIiEE, .-_ZN8Solution13minDifferenceERSt6vectorIiSaIiEE
	.section	.rodata
.LC0:
	.string	"Test case 1: "
.LC1:
	.string	"Test case 2: "
.LC2:
	.string	"Test case 3: "
.LC3:
	.string	"Test case 4: "
.LC4:
	.string	"Test case 5: "
	.text
	.globl	main
	.type	main, @function
main:
.LFB3769:
	.loc 4 54 12
	.cfi_startproc
	.cfi_personality 0x9b,DW.ref.__gxx_personality_v0
	.cfi_lsda 0x1b,.LLSDA3769
	endbr64
	pushq	%rbp
	.cfi_def_cfa_offset 16
	.cfi_offset 6, -16
	movq	%rsp, %rbp
	.cfi_def_cfa_register 6
	pushq	%r15
	pushq	%r14
	pushq	%r13
	pushq	%r12
	pushq	%rbx
	subq	$280, %rsp
	.cfi_offset 15, -24
	.cfi_offset 14, -32
	.cfi_offset 13, -40
	.cfi_offset 12, -48
	.cfi_offset 3, -56
	.loc 4 54 12
	movq	%fs:40, %rax
	movq	%rax, -56(%rbp)
	xorl	%eax, %eax
	.loc 4 58 41
	movl	$1, -96(%rbp)
	movl	$5, -92(%rbp)
	movl	$6, -88(%rbp)
	movl	$14, -84(%rbp)
	movl	$15, -80(%rbp)
	leaq	-96(%rbp), %rax
	movq	%rax, -320(%rbp)
	movq	$5, -312(%rbp)
	leaq	-128(%rbp), %rax
	movq	%rax, %rdi
	call	_ZNSaIiEC1Ev
	leaq	-128(%rbp), %rdx
	movq	-320(%rbp), %rcx
	movq	-312(%rbp), %rbx
	movq	%rcx, %rsi
	movq	%rbx, %rdi
	movq	%rbx, %rdi
	leaq	-256(%rbp), %rax
	movq	%rdx, %rcx
	movq	%rdi, %rdx
	movq	%rax, %rdi
.LEHB0:
	call	_ZNSt6vectorIiSaIiEEC1ESt16initializer_listIiERKS0_
.LEHE0:
	leaq	-128(%rbp), %rax
	movq	%rax, %rdi
	call	_ZNSaIiED1Ev
	.loc 4 59 13
	leaq	.LC0(%rip), %rax
	movq	%rax, %rsi
	leaq	_ZSt4cout(%rip), %rax
	movq	%rax, %rdi
.LEHB1:
	call	_ZStlsISt11char_traitsIcEERSt13basic_ostreamIcT_ES5_PKc@PLT
	movq	%rax, %rbx
	.loc 4 59 60
	leaq	-256(%rbp), %rdx
	leaq	-258(%rbp), %rax
	movq	%rdx, %rsi
	movq	%rax, %rdi
	call	_ZN8Solution13minDifferenceERSt6vectorIiSaIiEE
	.loc 4 59 60 is_stmt 0 discriminator 1
	movl	%eax, %esi
	movq	%rbx, %rdi
	call	_ZNSolsEi@PLT
	.loc 4 59 65 is_stmt 1 discriminator 2
	movq	_ZSt4endlIcSt11char_traitsIcEERSt13basic_ostreamIT_T0_ES6_@GOTPCREL(%rip), %rdx
	movq	%rdx, %rsi
	movq	%rax, %rdi
	call	_ZNSolsEPFRSoS_E@PLT
.LEHE1:
	.loc 4 62 41
	movl	$1, -96(%rbp)
	movl	$5, -92(%rbp)
	movl	$0, -88(%rbp)
	movl	$10, -84(%rbp)
	movl	$14, -80(%rbp)
	leaq	-96(%rbp), %rax
	movq	%rax, -304(%rbp)
	movq	$5, -296(%rbp)
	leaq	-128(%rbp), %rax
	movq	%rax, %rdi
	call	_ZNSaIiEC1Ev
	leaq	-128(%rbp), %rdx
	movq	-304(%rbp), %rcx
	movq	-296(%rbp), %rbx
	movq	%rcx, %rsi
	movq	%rbx, %rdi
	movq	%rbx, %rdi
	leaq	-224(%rbp), %rax
	movq	%rdx, %rcx
	movq	%rdi, %rdx
	movq	%rax, %rdi
.LEHB2:
	call	_ZNSt6vectorIiSaIiEEC1ESt16initializer_listIiERKS0_
.LEHE2:
	leaq	-128(%rbp), %rax
	movq	%rax, %rdi
	call	_ZNSaIiED1Ev
	.loc 4 63 13
	leaq	.LC1(%rip), %rax
	movq	%rax, %rsi
	leaq	_ZSt4cout(%rip), %rax
	movq	%rax, %rdi
.LEHB3:
	call	_ZStlsISt11char_traitsIcEERSt13basic_ostreamIcT_ES5_PKc@PLT
	movq	%rax, %rbx
	.loc 4 63 60
	leaq	-224(%rbp), %rdx
	leaq	-258(%rbp), %rax
	movq	%rdx, %rsi
	movq	%rax, %rdi
	call	_ZN8Solution13minDifferenceERSt6vectorIiSaIiEE
	.loc 4 63 60 is_stmt 0 discriminator 1
	movl	%eax, %esi
	movq	%rbx, %rdi
	call	_ZNSolsEi@PLT
	.loc 4 63 65 is_stmt 1 discriminator 2
	movq	_ZSt4endlIcSt11char_traitsIcEERSt13basic_ostreamIT_T0_ES6_@GOTPCREL(%rip), %rdx
	movq	%rdx, %rsi
	movq	%rax, %rdi
	call	_ZNSolsEPFRSoS_E@PLT
.LEHE3:
	.loc 4 66 45
	movl	$6, -96(%rbp)
	movl	$6, -92(%rbp)
	movl	$0, -88(%rbp)
	movl	$1, -84(%rbp)
	movl	$1, -80(%rbp)
	movl	$4, -76(%rbp)
	movl	$6, -72(%rbp)
	leaq	-96(%rbp), %rax
	movq	%rax, -288(%rbp)
	movq	$7, -280(%rbp)
	leaq	-128(%rbp), %rax
	movq	%rax, %rdi
	call	_ZNSaIiEC1Ev
	leaq	-128(%rbp), %rdx
	movq	-288(%rbp), %rcx
	movq	-280(%rbp), %rbx
	movq	%rcx, %rsi
	movq	%rbx, %rdi
	movq	%rbx, %rdi
	leaq	-192(%rbp), %rax
	movq	%rdx, %rcx
	movq	%rdi, %rdx
	movq	%rax, %rdi
.LEHB4:
	call	_ZNSt6vectorIiSaIiEEC1ESt16initializer_listIiERKS0_
.LEHE4:
	leaq	-128(%rbp), %rax
	movq	%rax, %rdi
	call	_ZNSaIiED1Ev
	.loc 4 67 13
	leaq	.LC2(%rip), %rax
	movq	%rax, %rsi
	leaq	_ZSt4cout(%rip), %rax
	movq	%rax, %rdi
.LEHB5:
	call	_ZStlsISt11char_traitsIcEERSt13basic_ostreamIcT_ES5_PKc@PLT
	movq	%rax, %rbx
	.loc 4 67 60
	leaq	-192(%rbp), %rdx
	leaq	-258(%rbp), %rax
	movq	%rdx, %rsi
	movq	%rax, %rdi
	call	_ZN8Solution13minDifferenceERSt6vectorIiSaIiEE
	.loc 4 67 60 is_stmt 0 discriminator 1
	movl	%eax, %esi
	movq	%rbx, %rdi
	call	_ZNSolsEi@PLT
	.loc 4 67 65 is_stmt 1 discriminator 2
	movq	_ZSt4endlIcSt11char_traitsIcEERSt13basic_ostreamIT_T0_ES6_@GOTPCREL(%rip), %rdx
	movq	%rdx, %rsi
	movq	%rax, %rdi
	call	_ZNSolsEPFRSoS_E@PLT
.LEHE5:
	.loc 4 70 53
	movl	$1, -96(%rbp)
	movl	$5, -92(%rbp)
	movl	$6, -88(%rbp)
	movl	$14, -84(%rbp)
	movl	$15, -80(%rbp)
	movl	$16, -76(%rbp)
	movl	$17, -72(%rbp)
	movl	$18, -68(%rbp)
	leaq	-96(%rbp), %rax
	movq	%rax, %r14
	movl	$8, %r15d
	leaq	-128(%rbp), %rax
	movq	%rax, %rdi
	call	_ZNSaIiEC1Ev
	leaq	-128(%rbp), %rdx
	movq	%r14, %rsi
	movq	%r15, %rdi
	movq	%r14, %rcx
	movq	%r15, %rbx
	movq	%rbx, %rdi
	leaq	-160(%rbp), %rax
	movq	%rdx, %rcx
	movq	%rdi, %rdx
	movq	%rax, %rdi
.LEHB6:
	call	_ZNSt6vectorIiSaIiEEC1ESt16initializer_listIiERKS0_
.LEHE6:
	leaq	-128(%rbp), %rax
	movq	%rax, %rdi
	call	_ZNSaIiED1Ev
	.loc 4 71 13
	leaq	.LC3(%rip), %rax
	movq	%rax, %rsi
	leaq	_ZSt4cout(%rip), %rax
	movq	%rax, %rdi
.LEHB7:
	call	_ZStlsISt11char_traitsIcEERSt13basic_ostreamIcT_ES5_PKc@PLT
	movq	%rax, %rbx
	.loc 4 71 60
	leaq	-160(%rbp), %rdx
	leaq	-258(%rbp), %rax
	movq	%rdx, %rsi
	movq	%rax, %rdi
	call	_ZN8Solution13minDifferenceERSt6vectorIiSaIiEE
	.loc 4 71 60 is_stmt 0 discriminator 1
	movl	%eax, %esi
	movq	%rbx, %rdi
	call	_ZNSolsEi@PLT
	.loc 4 71 65 is_stmt 1 discriminator 2
	movq	_ZSt4endlIcSt11char_traitsIcEERSt13basic_ostreamIT_T0_ES6_@GOTPCREL(%rip), %rdx
	movq	%rdx, %rsi
	movq	%rax, %rdi
	call	_ZNSolsEPFRSoS_E@PLT
.LEHE7:
	.loc 4 74 56
	movl	$10, -96(%rbp)
	movl	$20, -92(%rbp)
	movl	$30, -88(%rbp)
	movl	$40, -84(%rbp)
	movl	$50, -80(%rbp)
	movl	$60, -76(%rbp)
	movl	$70, -72(%rbp)
	movl	$80, -68(%rbp)
	leaq	-96(%rbp), %rax
	movq	%rax, %r12
	movl	$8, %r13d
	leaq	-257(%rbp), %rax
	movq	%rax, %rdi
	call	_ZNSaIiEC1Ev
	leaq	-257(%rbp), %rdx
	movq	%r12, %rsi
	movq	%r13, %rdi
	movq	%r12, %rcx
	movq	%r13, %rbx
	movq	%rbx, %rdi
	leaq	-128(%rbp), %rax
	movq	%rdx, %rcx
	movq	%rdi, %rdx
	movq	%rax, %rdi
.LEHB8:
	call	_ZNSt6vectorIiSaIiEEC1ESt16initializer_listIiERKS0_
.LEHE8:
	leaq	-257(%rbp), %rax
	movq	%rax, %rdi
	call	_ZNSaIiED1Ev
	.loc 4 75 13
	leaq	.LC4(%rip), %rax
	movq	%rax, %rsi
	leaq	_ZSt4cout(%rip), %rax
	movq	%rax, %rdi
.LEHB9:
	call	_ZStlsISt11char_traitsIcEERSt13basic_ostreamIcT_ES5_PKc@PLT
	movq	%rax, %rbx
	.loc 4 75 60
	leaq	-128(%rbp), %rdx
	leaq	-258(%rbp), %rax
	movq	%rdx, %rsi
	movq	%rax, %rdi
	call	_ZN8Solution13minDifferenceERSt6vectorIiSaIiEE
	.loc 4 75 60 is_stmt 0 discriminator 1
	movl	%eax, %esi
	movq	%rbx, %rdi
	call	_ZNSolsEi@PLT
	.loc 4 75 65 is_stmt 1 discriminator 2
	movq	_ZSt4endlIcSt11char_traitsIcEERSt13basic_ostreamIT_T0_ES6_@GOTPCREL(%rip), %rdx
	movq	%rdx, %rsi
	movq	%rax, %rdi
	call	_ZNSolsEPFRSoS_E@PLT
.LEHE9:
	.loc 4 77 12
	movl	$0, %ebx
	.loc 4 78 1
	leaq	-128(%rbp), %rax
	movq	%rax, %rdi
	call	_ZNSt6vectorIiSaIiEED1Ev
	leaq	-160(%rbp), %rax
	movq	%rax, %rdi
	call	_ZNSt6vectorIiSaIiEED1Ev
	leaq	-192(%rbp), %rax
	movq	%rax, %rdi
	call	_ZNSt6vectorIiSaIiEED1Ev
	leaq	-224(%rbp), %rax
	movq	%rax, %rdi
	call	_ZNSt6vectorIiSaIiEED1Ev
	leaq	-256(%rbp), %rax
	movq	%rax, %rdi
	call	_ZNSt6vectorIiSaIiEED1Ev
	movl	%ebx, %eax
	movq	-56(%rbp), %rdx
	subq	%fs:40, %rdx
	je	.L33
	jmp	.L44
.L34:
	endbr64
	movq	%rax, %rbx
	leaq	-128(%rbp), %rax
	movq	%rax, %rdi
	call	_ZNSaIiED1Ev
	movq	%rbx, %rax
	movq	%rax, %rdi
.LEHB10:
	call	_Unwind_Resume@PLT
.L36:
	endbr64
	movq	%rax, %rbx
	leaq	-128(%rbp), %rax
	movq	%rax, %rdi
	call	_ZNSaIiED1Ev
	jmp	.L25
.L38:
	endbr64
	movq	%rax, %rbx
	leaq	-128(%rbp), %rax
	movq	%rax, %rdi
	call	_ZNSaIiED1Ev
	jmp	.L27
.L40:
	endbr64
	movq	%rax, %rbx
	leaq	-128(%rbp), %rax
	movq	%rax, %rdi
	call	_ZNSaIiED1Ev
	jmp	.L29
.L42:
	endbr64
	movq	%rax, %rbx
	leaq	-257(%rbp), %rax
	movq	%rax, %rdi
	call	_ZNSaIiED1Ev
	jmp	.L31
.L43:
	endbr64
	movq	%rax, %rbx
	leaq	-128(%rbp), %rax
	movq	%rax, %rdi
	call	_ZNSt6vectorIiSaIiEED1Ev
	jmp	.L31
.L41:
	endbr64
	movq	%rax, %rbx
.L31:
	leaq	-160(%rbp), %rax
	movq	%rax, %rdi
	call	_ZNSt6vectorIiSaIiEED1Ev
	jmp	.L29
.L39:
	endbr64
	movq	%rax, %rbx
.L29:
	leaq	-192(%rbp), %rax
	movq	%rax, %rdi
	call	_ZNSt6vectorIiSaIiEED1Ev
	jmp	.L27
.L37:
	endbr64
	movq	%rax, %rbx
.L27:
	leaq	-224(%rbp), %rax
	movq	%rax, %rdi
	call	_ZNSt6vectorIiSaIiEED1Ev
	jmp	.L25
.L35:
	endbr64
	movq	%rax, %rbx
.L25:
	leaq	-256(%rbp), %rax
	movq	%rax, %rdi
	call	_ZNSt6vectorIiSaIiEED1Ev
	movq	%rbx, %rax
	movq	%rax, %rdi
	call	_Unwind_Resume@PLT
.LEHE10:
.L44:
	call	__stack_chk_fail@PLT
.L33:
	addq	$280, %rsp
	popq	%rbx
	popq	%r12
	popq	%r13
	popq	%r14
	popq	%r15
	popq	%rbp
	.cfi_def_cfa 7, 8
	ret
	.cfi_endproc
.LFE3769:
	.globl	__gxx_personality_v0
	.section	.gcc_except_table,"a",@progbits
.LLSDA3769:
	.byte	0xff
	.byte	0xff
	.byte	0x1
	.uleb128 .LLSDACSE3769-.LLSDACSB3769
.LLSDACSB3769:
	.uleb128 .LEHB0-.LFB3769
	.uleb128 .LEHE0-.LEHB0
	.uleb128 .L34-.LFB3769
	.uleb128 0
	.uleb128 .LEHB1-.LFB3769
	.uleb128 .LEHE1-.LEHB1
	.uleb128 .L35-.LFB3769
	.uleb128 0
	.uleb128 .LEHB2-.LFB3769
	.uleb128 .LEHE2-.LEHB2
	.uleb128 .L36-.LFB3769
	.uleb128 0
	.uleb128 .LEHB3-.LFB3769
	.uleb128 .LEHE3-.LEHB3
	.uleb128 .L37-.LFB3769
	.uleb128 0
	.uleb128 .LEHB4-.LFB3769
	.uleb128 .LEHE4-.LEHB4
	.uleb128 .L38-.LFB3769
	.uleb128 0
	.uleb128 .LEHB5-.LFB3769
	.uleb128 .LEHE5-.LEHB5
	.uleb128 .L39-.LFB3769
	.uleb128 0
	.uleb128 .LEHB6-.LFB3769
	.uleb128 .LEHE6-.LEHB6
	.uleb128 .L40-.LFB3769
	.uleb128 0
	.uleb128 .LEHB7-.LFB3769
	.uleb128 .LEHE7-.LEHB7
	.uleb128 .L41-.LFB3769
	.uleb128 0
	.uleb128 .LEHB8-.LFB3769
	.uleb128 .LEHE8-.LEHB8
	.uleb128 .L42-.LFB3769
	.uleb128 0
	.uleb128 .LEHB9-.LFB3769
	.uleb128 .LEHE9-.LEHB9
	.uleb128 .L43-.LFB3769
	.uleb128 0
	.uleb128 .LEHB10-.LFB3769
	.uleb128 .LEHE10-.LEHB10
	.uleb128 0
	.uleb128 0
.LLSDACSE3769:
	.text
	.size	main, .-main
	.section	.text._ZNKSt6vectorIiSaIiEE4sizeEv,"axG",@progbits,_ZNKSt6vectorIiSaIiEE4sizeEv,comdat
	.align 2
	.weak	_ZNKSt6vectorIiSaIiEE4sizeEv
	.type	_ZNKSt6vectorIiSaIiEE4sizeEv, @function
_ZNKSt6vectorIiSaIiEE4sizeEv:
.LFB4085:
	.file 5 "/usr/include/c++/11/bits/stl_vector.h"
	.loc 5 918 7
	.cfi_startproc
	endbr64
	pushq	%rbp
	.cfi_def_cfa_offset 16
	.cfi_offset 6, -16
	movq	%rsp, %rbp
	.cfi_def_cfa_register 6
	movq	%rdi, -8(%rbp)
	.loc 5 919 40
	movq	-8(%rbp), %rax
	movq	8(%rax), %rdx
	.loc 5 919 66
	movq	-8(%rbp), %rax
	movq	(%rax), %rcx
	.loc 5 919 50
	movq	%rdx, %rax
	subq	%rcx, %rax
	sarq	$2, %rax
	.loc 5 919 77
	popq	%rbp
	.cfi_def_cfa 7, 8
	ret
	.cfi_endproc
.LFE4085:
	.size	_ZNKSt6vectorIiSaIiEE4sizeEv, .-_ZNKSt6vectorIiSaIiEE4sizeEv
	.section	.text._ZNSt6vectorIiSaIiEEixEm,"axG",@progbits,_ZNSt6vectorIiSaIiEEixEm,comdat
	.align 2
	.weak	_ZNSt6vectorIiSaIiEEixEm
	.type	_ZNSt6vectorIiSaIiEEixEm, @function
_ZNSt6vectorIiSaIiEEixEm:
.LFB4086:
	.loc 5 1043 7
	.cfi_startproc
	endbr64
	pushq	%rbp
	.cfi_def_cfa_offset 16
	.cfi_offset 6, -16
	movq	%rsp, %rbp
	.cfi_def_cfa_register 6
	movq	%rdi, -8(%rbp)
	movq	%rsi, -16(%rbp)
	.loc 5 1046 25
	movq	-8(%rbp), %rax
	movq	(%rax), %rdx
	.loc 5 1046 34
	movq	-16(%rbp), %rax
	salq	$2, %rax
	.loc 5 1046 39
	addq	%rdx, %rax
	.loc 5 1047 7
	popq	%rbp
	.cfi_def_cfa 7, 8
	ret
	.cfi_endproc
.LFE4086:
	.size	_ZNSt6vectorIiSaIiEEixEm, .-_ZNSt6vectorIiSaIiEEixEm
	.section	.text._ZSt4swapIiENSt9enable_ifIXsrSt6__and_IJSt6__not_ISt15__is_tuple_likeIT_EESt21is_move_constructibleIS4_ESt18is_move_assignableIS4_EEE5valueEvE4typeERS4_SE_,"axG",@progbits,_ZSt4swapIiENSt9enable_ifIXsrSt6__and_IJSt6__not_ISt15__is_tuple_likeIT_EESt21is_move_constructibleIS4_ESt18is_move_assignableIS4_EEE5valueEvE4typeERS4_SE_,comdat
	.weak	_ZSt4swapIiENSt9enable_ifIXsrSt6__and_IJSt6__not_ISt15__is_tuple_likeIT_EESt21is_move_constructibleIS4_ESt18is_move_assignableIS4_EEE5valueEvE4typeERS4_SE_
	.type	_ZSt4swapIiENSt9enable_ifIXsrSt6__and_IJSt6__not_ISt15__is_tuple_likeIT_EESt21is_move_constructibleIS4_ESt18is_move_assignableIS4_EEE5valueEvE4typeERS4_SE_, @function
_ZSt4swapIiENSt9enable_ifIXsrSt6__and_IJSt6__not_ISt15__is_tuple_likeIT_EESt21is_move_constructibleIS4_ESt18is_move_assignableIS4_EEE5valueEvE4typeERS4_SE_:
.LFB4087:
	.file 6 "/usr/include/c++/11/bits/move.h"
	.loc 6 196 5
	.cfi_startproc
	endbr64
	pushq	%rbp
	.cfi_def_cfa_offset 16
	.cfi_offset 6, -16
	movq	%rsp, %rbp
	.cfi_def_cfa_register 6
	subq	$32, %rsp
	movq	%rdi, -24(%rbp)
	movq	%rsi, -32(%rbp)
	.loc 6 196 5
	movq	%fs:40, %rax
	movq	%rax, -8(%rbp)
	xorl	%eax, %eax
	.loc 6 204 28
	movq	-24(%rbp), %rax
	movq	%rax, %rdi
	call	_ZSt4moveIRiEONSt16remove_referenceIT_E4typeEOS2_
	.loc 6 204 11
	movl	(%rax), %eax
	movl	%eax, -12(%rbp)
	.loc 6 205 22
	movq	-32(%rbp), %rax
	movq	%rax, %rdi
	call	_ZSt4moveIRiEONSt16remove_referenceIT_E4typeEOS2_
	.loc 6 205 11
	movl	(%rax), %edx
	movq	-24(%rbp), %rax
	movl	%edx, (%rax)
	.loc 6 206 22
	leaq	-12(%rbp), %rax
	movq	%rax, %rdi
	call	_ZSt4moveIRiEONSt16remove_referenceIT_E4typeEOS2_
	.loc 6 206 11
	movl	(%rax), %edx
	movq	-32(%rbp), %rax
	movl	%edx, (%rax)
	.loc 6 207 5
	nop
	movq	-8(%rbp), %rax
	subq	%fs:40, %rax
	je	.L50
	call	__stack_chk_fail@PLT
.L50:
	leave
	.cfi_def_cfa 7, 8
	ret
	.cfi_endproc
.LFE4087:
	.size	_ZSt4swapIiENSt9enable_ifIXsrSt6__and_IJSt6__not_ISt15__is_tuple_likeIT_EESt21is_move_constructibleIS4_ESt18is_move_assignableIS4_EEE5valueEvE4typeERS4_SE_, .-_ZSt4swapIiENSt9enable_ifIXsrSt6__and_IJSt6__not_ISt15__is_tuple_likeIT_EESt21is_move_constructibleIS4_ESt18is_move_assignableIS4_EEE5valueEvE4typeERS4_SE_
	.section	.text._ZSt3minIiET_St16initializer_listIS0_E,"axG",@progbits,_ZSt3minIiET_St16initializer_listIS0_E,comdat
	.weak	_ZSt3minIiET_St16initializer_listIS0_E
	.type	_ZSt3minIiET_St16initializer_listIS0_E, @function
_ZSt3minIiET_St16initializer_listIS0_E:
.LFB4088:
	.file 7 "/usr/include/c++/11/bits/stl_algo.h"
	.loc 7 3449 5
	.cfi_startproc
	endbr64
	pushq	%rbp
	.cfi_def_cfa_offset 16
	.cfi_offset 6, -16
	movq	%rsp, %rbp
	.cfi_def_cfa_register 6
	pushq	%rbx
	subq	$24, %rsp
	.cfi_offset 3, -24
	movq	%rdi, %rax
	movq	%rsi, %rcx
	movq	%rcx, %rdx
	movq	%rax, -32(%rbp)
	movq	%rdx, -24(%rbp)
	.loc 7 3450 31
	leaq	-32(%rbp), %rax
	movq	%rax, %rdi
	call	_ZNKSt16initializer_listIiE3endEv
	movq	%rax, %rbx
	leaq	-32(%rbp), %rax
	movq	%rax, %rdi
	call	_ZNKSt16initializer_listIiE5beginEv
	movq	%rbx, %rsi
	movq	%rax, %rdi
	call	_ZSt11min_elementIPKiET_S2_S2_
	.loc 7 3450 54
	movl	(%rax), %eax
	.loc 7 3450 57
	movq	-8(%rbp), %rbx
	leave
	.cfi_def_cfa 7, 8
	ret
	.cfi_endproc
.LFE4088:
	.size	_ZSt3minIiET_St16initializer_listIS0_E, .-_ZSt3minIiET_St16initializer_listIS0_E
	.section	.text._ZNSaIiEC2Ev,"axG",@progbits,_ZNSaIiEC5Ev,comdat
	.align 2
	.weak	_ZNSaIiEC2Ev
	.type	_ZNSaIiEC2Ev, @function
_ZNSaIiEC2Ev:
.LFB4090:
	.file 8 "/usr/include/c++/11/bits/allocator.h"
	.loc 8 156 7
	.cfi_startproc
	endbr64
	pushq	%rbp
	.cfi_def_cfa_offset 16
	.cfi_offset 6, -16
	movq	%rsp, %rbp
	.cfi_def_cfa_register 6
	subq	$16, %rsp
	movq	%rdi, -8(%rbp)
.LBB10:
	.loc 8 156 28
	movq	-8(%rbp), %rax
	movq	%rax, %rdi
	call	_ZN9__gnu_cxx13new_allocatorIiEC2Ev
.LBE10:
	.loc 8 156 30
	nop
	leave
	.cfi_def_cfa 7, 8
	ret
	.cfi_endproc
.LFE4090:
	.size	_ZNSaIiEC2Ev, .-_ZNSaIiEC2Ev
	.weak	_ZNSaIiEC1Ev
	.set	_ZNSaIiEC1Ev,_ZNSaIiEC2Ev
	.section	.text._ZNSaIiED2Ev,"axG",@progbits,_ZNSaIiED5Ev,comdat
	.align 2
	.weak	_ZNSaIiED2Ev
	.type	_ZNSaIiED2Ev, @function
_ZNSaIiED2Ev:
.LFB4093:
	.loc 8 174 7
	.cfi_startproc
	endbr64
	pushq	%rbp
	.cfi_def_cfa_offset 16
	.cfi_offset 6, -16
	movq	%rsp, %rbp
	.cfi_def_cfa_register 6
	movq	%rdi, -8(%rbp)
	.loc 8 174 31
	nop
	popq	%rbp
	.cfi_def_cfa 7, 8
	ret
	.cfi_endproc
.LFE4093:
	.size	_ZNSaIiED2Ev, .-_ZNSaIiED2Ev
	.weak	_ZNSaIiED1Ev
	.set	_ZNSaIiED1Ev,_ZNSaIiED2Ev
	.section	.text._ZNSt6vectorIiSaIiEEC2ESt16initializer_listIiERKS0_,"axG",@progbits,_ZNSt6vectorIiSaIiEEC5ESt16initializer_listIiERKS0_,comdat
	.align 2
	.weak	_ZNSt6vectorIiSaIiEEC2ESt16initializer_listIiERKS0_
	.type	_ZNSt6vectorIiSaIiEEC2ESt16initializer_listIiERKS0_, @function
_ZNSt6vectorIiSaIiEEC2ESt16initializer_listIiERKS0_:
.LFB4096:
	.loc 5 625 7
	.cfi_startproc
	.cfi_personality 0x9b,DW.ref.__gxx_personality_v0
	.cfi_lsda 0x1b,.LLSDA4096
	endbr64
	pushq	%rbp
	.cfi_def_cfa_offset 16
	.cfi_offset 6, -16
	movq	%rsp, %rbp
	.cfi_def_cfa_register 6
	pushq	%rbx
	subq	$56, %rsp
	.cfi_offset 3, -24
	movq	%rdi, -40(%rbp)
	movq	%rsi, %rax
	movq	%rdx, %rsi
	movq	%rsi, %rdx
	movq	%rax, -64(%rbp)
	movq	%rdx, -56(%rbp)
	movq	%rcx, -48(%rbp)
	.loc 5 625 7
	movq	%fs:40, %rax
	movq	%rax, -24(%rbp)
	xorl	%eax, %eax
.LBB11:
	.loc 5 627 18
	movq	-40(%rbp), %rax
	movq	-48(%rbp), %rdx
	movq	%rdx, %rsi
	movq	%rax, %rdi
	call	_ZNSt12_Vector_baseIiSaIiEEC2ERKS0_
	.loc 5 629 21
	leaq	-64(%rbp), %rax
	movq	%rax, %rdi
	call	_ZNKSt16initializer_listIiE3endEv
	movq	%rax, %rbx
	leaq	-64(%rbp), %rax
	movq	%rax, %rdi
	call	_ZNKSt16initializer_listIiE5beginEv
	movq	%rax, %rcx
	movq	-40(%rbp), %rax
	movq	%rbx, %rdx
	movq	%rcx, %rsi
	movq	%rax, %rdi
.LEHB11:
	call	_ZNSt6vectorIiSaIiEE19_M_range_initializeIPKiEEvT_S5_St20forward_iterator_tag
.LEHE11:
.LBE11:
	.loc 5 631 7
	jmp	.L59
.L58:
	endbr64
.LBB12:
	movq	%rax, %rbx
	movq	-40(%rbp), %rax
	movq	%rax, %rdi
	call	_ZNSt12_Vector_baseIiSaIiEED2Ev
	movq	%rbx, %rax
	movq	%rax, %rdi
.LEHB12:
	call	_Unwind_Resume@PLT
.LEHE12:
.L59:
.LBE12:
	movq	-24(%rbp), %rax
	subq	%fs:40, %rax
	je	.L57
	call	__stack_chk_fail@PLT
.L57:
	movq	-8(%rbp), %rbx
	leave
	.cfi_def_cfa 7, 8
	ret
	.cfi_endproc
.LFE4096:
	.section	.gcc_except_table
.LLSDA4096:
	.byte	0xff
	.byte	0xff
	.byte	0x1
	.uleb128 .LLSDACSE4096-.LLSDACSB4096
.LLSDACSB4096:
	.uleb128 .LEHB11-.LFB4096
	.uleb128 .LEHE11-.LEHB11
	.uleb128 .L58-.LFB4096
	.uleb128 0
	.uleb128 .LEHB12-.LFB4096
	.uleb128 .LEHE12-.LEHB12
	.uleb128 0
	.uleb128 0
.LLSDACSE4096:
	.section	.text._ZNSt6vectorIiSaIiEEC2ESt16initializer_listIiERKS0_,"axG",@progbits,_ZNSt6vectorIiSaIiEEC5ESt16initializer_listIiERKS0_,comdat
	.size	_ZNSt6vectorIiSaIiEEC2ESt16initializer_listIiERKS0_, .-_ZNSt6vectorIiSaIiEEC2ESt16initializer_listIiERKS0_
	.weak	_ZNSt6vectorIiSaIiEEC1ESt16initializer_listIiERKS0_
	.set	_ZNSt6vectorIiSaIiEEC1ESt16initializer_listIiERKS0_,_ZNSt6vectorIiSaIiEEC2ESt16initializer_listIiERKS0_
	.section	.text._ZNSt6vectorIiSaIiEED2Ev,"axG",@progbits,_ZNSt6vectorIiSaIiEED5Ev,comdat
	.align 2
	.weak	_ZNSt6vectorIiSaIiEED2Ev
	.type	_ZNSt6vectorIiSaIiEED2Ev, @function
_ZNSt6vectorIiSaIiEED2Ev:
.LFB4099:
	.loc 5 678 7
	.cfi_startproc
	.cfi_personality 0x9b,DW.ref.__gxx_personality_v0
	.cfi_lsda 0x1b,.LLSDA4099
	endbr64
	pushq	%rbp
	.cfi_def_cfa_offset 16
	.cfi_offset 6, -16
	movq	%rsp, %rbp
	.cfi_def_cfa_register 6
	subq	$16, %rsp
	movq	%rdi, -8(%rbp)
.LBB13:
	.loc 5 681 28
	movq	-8(%rbp), %rax
	movq	%rax, %rdi
	call	_ZNSt12_Vector_baseIiSaIiEE19_M_get_Tp_allocatorEv
	movq	%rax, %rdx
	.loc 5 680 15
	movq	-8(%rbp), %rax
	movq	8(%rax), %rcx
	movq	-8(%rbp), %rax
	movq	(%rax), %rax
	movq	%rcx, %rsi
	movq	%rax, %rdi
	call	_ZSt8_DestroyIPiiEvT_S1_RSaIT0_E
	.loc 5 683 7
	movq	-8(%rbp), %rax
	movq	%rax, %rdi
	call	_ZNSt12_Vector_baseIiSaIiEED2Ev
.LBE13:
	nop
	leave
	.cfi_def_cfa 7, 8
	ret
	.cfi_endproc
.LFE4099:
	.section	.gcc_except_table
.LLSDA4099:
	.byte	0xff
	.byte	0xff
	.byte	0x1
	.uleb128 .LLSDACSE4099-.LLSDACSB4099
.LLSDACSB4099:
.LLSDACSE4099:
	.section	.text._ZNSt6vectorIiSaIiEED2Ev,"axG",@progbits,_ZNSt6vectorIiSaIiEED5Ev,comdat
	.size	_ZNSt6vectorIiSaIiEED2Ev, .-_ZNSt6vectorIiSaIiEED2Ev
	.weak	_ZNSt6vectorIiSaIiEED1Ev
	.set	_ZNSt6vectorIiSaIiEED1Ev,_ZNSt6vectorIiSaIiEED2Ev
	.section	.text._ZSt4moveIRiEONSt16remove_referenceIT_E4typeEOS2_,"axG",@progbits,_ZSt4moveIRiEONSt16remove_referenceIT_E4typeEOS2_,comdat
	.weak	_ZSt4moveIRiEONSt16remove_referenceIT_E4typeEOS2_
	.type	_ZSt4moveIRiEONSt16remove_referenceIT_E4typeEOS2_, @function
_ZSt4moveIRiEONSt16remove_referenceIT_E4typeEOS2_:
.LFB4208:
	.loc 6 104 5
	.cfi_startproc
	endbr64
	pushq	%rbp
	.cfi_def_cfa_offset 16
	.cfi_offset 6, -16
	movq	%rsp, %rbp
	.cfi_def_cfa_register 6
	movq	%rdi, -8(%rbp)
	.loc 6 105 74
	movq	-8(%rbp), %rax
	.loc 6 105 77
	popq	%rbp
	.cfi_def_cfa 7, 8
	ret
	.cfi_endproc
.LFE4208:
	.size	_ZSt4moveIRiEONSt16remove_referenceIT_E4typeEOS2_, .-_ZSt4moveIRiEONSt16remove_referenceIT_E4typeEOS2_
	.section	.text._ZNKSt16initializer_listIiE5beginEv,"axG",@progbits,_ZNKSt16initializer_listIiE5beginEv,comdat
	.align 2
	.weak	_ZNKSt16initializer_listIiE5beginEv
	.type	_ZNKSt16initializer_listIiE5beginEv, @function
_ZNKSt16initializer_listIiE5beginEv:
.LFB4209:
	.file 9 "/usr/include/c++/11/initializer_list"
	.loc 9 75 7
	.cfi_startproc
	endbr64
	pushq	%rbp
	.cfi_def_cfa_offset 16
	.cfi_offset 6, -16
	movq	%rsp, %rbp
	.cfi_def_cfa_register 6
	movq	%rdi, -8(%rbp)
	.loc 9 75 39
	movq	-8(%rbp), %rax
	movq	(%rax), %rax
	.loc 9 75 49
	popq	%rbp
	.cfi_def_cfa 7, 8
	ret
	.cfi_endproc
.LFE4209:
	.size	_ZNKSt16initializer_listIiE5beginEv, .-_ZNKSt16initializer_listIiE5beginEv
	.section	.text._ZNKSt16initializer_listIiE3endEv,"axG",@progbits,_ZNKSt16initializer_listIiE3endEv,comdat
	.align 2
	.weak	_ZNKSt16initializer_listIiE3endEv
	.type	_ZNKSt16initializer_listIiE3endEv, @function
_ZNKSt16initializer_listIiE3endEv:
.LFB4210:
	.loc 9 79 7
	.cfi_startproc
	endbr64
	pushq	%rbp
	.cfi_def_cfa_offset 16
	.cfi_offset 6, -16
	movq	%rsp, %rbp
	.cfi_def_cfa_register 6
	pushq	%rbx
	subq	$24, %rsp
	.cfi_offset 3, -24
	movq	%rdi, -24(%rbp)
	.loc 9 79 42
	movq	-24(%rbp), %rax
	movq	%rax, %rdi
	call	_ZNKSt16initializer_listIiE5beginEv
	movq	%rax, %rbx
	.loc 9 79 51
	movq	-24(%rbp), %rax
	movq	%rax, %rdi
	call	_ZNKSt16initializer_listIiE4sizeEv
	.loc 9 79 45
	salq	$2, %rax
	.loc 9 79 52
	addq	%rbx, %rax
	.loc 9 79 55
	movq	-8(%rbp), %rbx
	leave
	.cfi_def_cfa 7, 8
	ret
	.cfi_endproc
.LFE4210:
	.size	_ZNKSt16initializer_listIiE3endEv, .-_ZNKSt16initializer_listIiE3endEv
	.section	.text._ZSt11min_elementIPKiET_S2_S2_,"axG",@progbits,_ZSt11min_elementIPKiET_S2_S2_,comdat
	.weak	_ZSt11min_elementIPKiET_S2_S2_
	.type	_ZSt11min_elementIPKiET_S2_S2_, @function
_ZSt11min_elementIPKiET_S2_S2_:
.LFB4211:
	.loc 7 5639 12
	.cfi_startproc
	endbr64
	pushq	%rbp
	.cfi_def_cfa_offset 16
	.cfi_offset 6, -16
	movq	%rsp, %rbp
	.cfi_def_cfa_register 6
	subq	$16, %rsp
	movq	%rdi, -8(%rbp)
	movq	%rsi, -16(%rbp)
	.loc 7 5649 39
	call	_ZN9__gnu_cxx5__ops16__iter_less_iterEv
	.loc 7 5648 32
	movq	-16(%rbp), %rdx
	movq	-8(%rbp), %rax
	movq	%rdx, %rsi
	movq	%rax, %rdi
	call	_ZSt13__min_elementIPKiN9__gnu_cxx5__ops15_Iter_less_iterEET_S5_S5_T0_
	.loc 7 5650 5
	leave
	.cfi_def_cfa 7, 8
	ret
	.cfi_endproc
.LFE4211:
	.size	_ZSt11min_elementIPKiET_S2_S2_, .-_ZSt11min_elementIPKiET_S2_S2_
	.section	.text._ZN9__gnu_cxx13new_allocatorIiEC2Ev,"axG",@progbits,_ZN9__gnu_cxx13new_allocatorIiEC5Ev,comdat
	.align 2
	.weak	_ZN9__gnu_cxx13new_allocatorIiEC2Ev
	.type	_ZN9__gnu_cxx13new_allocatorIiEC2Ev, @function
_ZN9__gnu_cxx13new_allocatorIiEC2Ev:
.LFB4213:
	.file 10 "/usr/include/c++/11/ext/new_allocator.h"
	.loc 10 79 7
	.cfi_startproc
	endbr64
	pushq	%rbp
	.cfi_def_cfa_offset 16
	.cfi_offset 6, -16
	movq	%rsp, %rbp
	.cfi_def_cfa_register 6
	movq	%rdi, -8(%rbp)
	.loc 10 79 34
	nop
	popq	%rbp
	.cfi_def_cfa 7, 8
	ret
	.cfi_endproc
.LFE4213:
	.size	_ZN9__gnu_cxx13new_allocatorIiEC2Ev, .-_ZN9__gnu_cxx13new_allocatorIiEC2Ev
	.weak	_ZN9__gnu_cxx13new_allocatorIiEC1Ev
	.set	_ZN9__gnu_cxx13new_allocatorIiEC1Ev,_ZN9__gnu_cxx13new_allocatorIiEC2Ev
	.section	.text._ZNSt12_Vector_baseIiSaIiEE12_Vector_implD2Ev,"axG",@progbits,_ZNSt12_Vector_baseIiSaIiEE12_Vector_implD5Ev,comdat
	.align 2
	.weak	_ZNSt12_Vector_baseIiSaIiEE12_Vector_implD2Ev
	.type	_ZNSt12_Vector_baseIiSaIiEE12_Vector_implD2Ev, @function
_ZNSt12_Vector_baseIiSaIiEE12_Vector_implD2Ev:
.LFB4217:
	.loc 5 128 14
	.cfi_startproc
	endbr64
	pushq	%rbp
	.cfi_def_cfa_offset 16
	.cfi_offset 6, -16
	movq	%rsp, %rbp
	.cfi_def_cfa_register 6
	subq	$16, %rsp
	movq	%rdi, -8(%rbp)
.LBB14:
	.loc 5 128 14
	movq	-8(%rbp), %rax
	movq	%rax, %rdi
	call	_ZNSaIiED2Ev
.LBE14:
	nop
	leave
	.cfi_def_cfa 7, 8
	ret
	.cfi_endproc
.LFE4217:
	.size	_ZNSt12_Vector_baseIiSaIiEE12_Vector_implD2Ev, .-_ZNSt12_Vector_baseIiSaIiEE12_Vector_implD2Ev
	.weak	_ZNSt12_Vector_baseIiSaIiEE12_Vector_implD1Ev
	.set	_ZNSt12_Vector_baseIiSaIiEE12_Vector_implD1Ev,_ZNSt12_Vector_baseIiSaIiEE12_Vector_implD2Ev
	.section	.text._ZNSt12_Vector_baseIiSaIiEEC2ERKS0_,"axG",@progbits,_ZNSt12_Vector_baseIiSaIiEEC5ERKS0_,comdat
	.align 2
	.weak	_ZNSt12_Vector_baseIiSaIiEEC2ERKS0_
	.type	_ZNSt12_Vector_baseIiSaIiEEC2ERKS0_, @function
_ZNSt12_Vector_baseIiSaIiEEC2ERKS0_:
.LFB4219:
	.loc 5 293 7
	.cfi_startproc
	endbr64
	pushq	%rbp
	.cfi_def_cfa_offset 16
	.cfi_offset 6, -16
	movq	%rsp, %rbp
	.cfi_def_cfa_register 6
	subq	$16, %rsp
	movq	%rdi, -8(%rbp)
	movq	%rsi, -16(%rbp)
.LBB15:
	.loc 5 294 9
	movq	-8(%rbp), %rax
	movq	-16(%rbp), %rdx
	movq	%rdx, %rsi
	movq	%rax, %rdi
	call	_ZNSt12_Vector_baseIiSaIiEE12_Vector_implC1ERKS0_
.LBE15:
	.loc 5 294 24
	nop
	leave
	.cfi_def_cfa 7, 8
	ret
	.cfi_endproc
.LFE4219:
	.size	_ZNSt12_Vector_baseIiSaIiEEC2ERKS0_, .-_ZNSt12_Vector_baseIiSaIiEEC2ERKS0_
	.weak	_ZNSt12_Vector_baseIiSaIiEEC1ERKS0_
	.set	_ZNSt12_Vector_baseIiSaIiEEC1ERKS0_,_ZNSt12_Vector_baseIiSaIiEEC2ERKS0_
	.section	.text._ZNSt12_Vector_baseIiSaIiEED2Ev,"axG",@progbits,_ZNSt12_Vector_baseIiSaIiEED5Ev,comdat
	.align 2
	.weak	_ZNSt12_Vector_baseIiSaIiEED2Ev
	.type	_ZNSt12_Vector_baseIiSaIiEED2Ev, @function
_ZNSt12_Vector_baseIiSaIiEED2Ev:
.LFB4222:
	.loc 5 333 7
	.cfi_startproc
	.cfi_personality 0x9b,DW.ref.__gxx_personality_v0
	.cfi_lsda 0x1b,.LLSDA4222
	endbr64
	pushq	%rbp
	.cfi_def_cfa_offset 16
	.cfi_offset 6, -16
	movq	%rsp, %rbp
	.cfi_def_cfa_register 6
	subq	$16, %rsp
	movq	%rdi, -8(%rbp)
.LBB16:
	.loc 5 336 17
	movq	-8(%rbp), %rax
	movq	16(%rax), %rdx
	.loc 5 336 45
	movq	-8(%rbp), %rax
	movq	(%rax), %rcx
	.loc 5 336 35
	movq	%rdx, %rax
	subq	%rcx, %rax
	sarq	$2, %rax
	.loc 5 335 15
	movq	%rax, %rdx
	movq	-8(%rbp), %rax
	movq	(%rax), %rcx
	movq	-8(%rbp), %rax
	movq	%rcx, %rsi
	movq	%rax, %rdi
	call	_ZNSt12_Vector_baseIiSaIiEE13_M_deallocateEPim
	.loc 5 337 7
	movq	-8(%rbp), %rax
	movq	%rax, %rdi
	call	_ZNSt12_Vector_baseIiSaIiEE12_Vector_implD1Ev
.LBE16:
	nop
	leave
	.cfi_def_cfa 7, 8
	ret
	.cfi_endproc
.LFE4222:
	.section	.gcc_except_table
.LLSDA4222:
	.byte	0xff
	.byte	0xff
	.byte	0x1
	.uleb128 .LLSDACSE4222-.LLSDACSB4222
.LLSDACSB4222:
.LLSDACSE4222:
	.section	.text._ZNSt12_Vector_baseIiSaIiEED2Ev,"axG",@progbits,_ZNSt12_Vector_baseIiSaIiEED5Ev,comdat
	.size	_ZNSt12_Vector_baseIiSaIiEED2Ev, .-_ZNSt12_Vector_baseIiSaIiEED2Ev
	.weak	_ZNSt12_Vector_baseIiSaIiEED1Ev
	.set	_ZNSt12_Vector_baseIiSaIiEED1Ev,_ZNSt12_Vector_baseIiSaIiEED2Ev
	.section	.text._ZSt8distanceIPKiENSt15iterator_traitsIT_E15difference_typeES3_S3_,"axG",@progbits,_ZSt8distanceIPKiENSt15iterator_traitsIT_E15difference_typeES3_S3_,comdat
	.weak	_ZSt8distanceIPKiENSt15iterator_traitsIT_E15difference_typeES3_S3_
	.type	_ZSt8distanceIPKiENSt15iterator_traitsIT_E15difference_typeES3_S3_, @function
_ZSt8distanceIPKiENSt15iterator_traitsIT_E15difference_typeES3_S3_:
.LFB4225:
	.file 11 "/usr/include/c++/11/bits/stl_iterator_base_funcs.h"
	.loc 11 138 5
	.cfi_startproc
	endbr64
	pushq	%rbp
	.cfi_def_cfa_offset 16
	.cfi_offset 6, -16
	movq	%rsp, %rbp
	.cfi_def_cfa_register 6
	subq	$16, %rsp
	movq	%rdi, -8(%rbp)
	movq	%rsi, -16(%rbp)
	.loc 11 142 33
	leaq	-8(%rbp), %rax
	movq	%rax, %rdi
	call	_ZSt19__iterator_categoryIPKiENSt15iterator_traitsIT_E17iterator_categoryERKS3_
	.loc 11 141 29
	movq	-8(%rbp), %rax
	movq	-16(%rbp), %rdx
	movq	%rdx, %rsi
	movq	%rax, %rdi
	call	_ZSt10__distanceIPKiENSt15iterator_traitsIT_E15difference_typeES3_S3_St26random_access_iterator_tag
	.loc 11 143 5
	leave
	.cfi_def_cfa 7, 8
	ret
	.cfi_endproc
.LFE4225:
	.size	_ZSt8distanceIPKiENSt15iterator_traitsIT_E15difference_typeES3_S3_, .-_ZSt8distanceIPKiENSt15iterator_traitsIT_E15difference_typeES3_S3_
	.section	.text._ZNSt6vectorIiSaIiEE19_M_range_initializeIPKiEEvT_S5_St20forward_iterator_tag,"axG",@progbits,_ZNSt6vectorIiSaIiEE19_M_range_initializeIPKiEEvT_S5_St20forward_iterator_tag,comdat
	.align 2
	.weak	_ZNSt6vectorIiSaIiEE19_M_range_initializeIPKiEEvT_S5_St20forward_iterator_tag
	.type	_ZNSt6vectorIiSaIiEE19_M_range_initializeIPKiEEvT_S5_St20forward_iterator_tag, @function
_ZNSt6vectorIiSaIiEE19_M_range_initializeIPKiEEvT_S5_St20forward_iterator_tag:
.LFB4224:
	.loc 5 1577 2
	.cfi_startproc
	endbr64
	pushq	%rbp
	.cfi_def_cfa_offset 16
	.cfi_offset 6, -16
	movq	%rsp, %rbp
	.cfi_def_cfa_register 6
	pushq	%rbx
	subq	$56, %rsp
	.cfi_offset 3, -24
	movq	%rdi, -40(%rbp)
	movq	%rsi, -48(%rbp)
	movq	%rdx, -56(%rbp)
	.loc 5 1580 39
	movq	-56(%rbp), %rdx
	movq	-48(%rbp), %rax
	movq	%rdx, %rsi
	movq	%rax, %rdi
	call	_ZSt8distanceIPKiENSt15iterator_traitsIT_E15difference_typeES3_S3_
	.loc 5 1580 20
	movq	%rax, -24(%rbp)
	.loc 5 1582 25
	movq	-40(%rbp), %rbx
	.loc 5 1582 68
	movq	-40(%rbp), %rax
	movq	%rax, %rdi
	call	_ZNSt12_Vector_baseIiSaIiEE19_M_get_Tp_allocatorEv
	movq	%rax, %rdx
	.loc 5 1582 25
	movq	-24(%rbp), %rax
	movq	%rdx, %rsi
	movq	%rax, %rdi
	call	_ZNSt6vectorIiSaIiEE17_S_check_init_lenEmRKS0_
	movq	%rax, %rsi
	movq	%rbx, %rdi
	call	_ZNSt12_Vector_baseIiSaIiEE11_M_allocateEm
	.loc 5 1582 6
	movq	-40(%rbp), %rdx
	movq	%rax, (%rdx)
	.loc 5 1583 52
	movq	-40(%rbp), %rax
	movq	(%rax), %rdx
	.loc 5 1583 61
	movq	-24(%rbp), %rax
	salq	$2, %rax
	addq	%rax, %rdx
	.loc 5 1583 36
	movq	-40(%rbp), %rax
	movq	%rdx, 16(%rax)
	.loc 5 1587 25
	movq	-40(%rbp), %rax
	movq	%rax, %rdi
	call	_ZNSt12_Vector_baseIiSaIiEE19_M_get_Tp_allocatorEv
	movq	%rax, %rcx
	.loc 5 1585 33
	movq	-40(%rbp), %rax
	movq	(%rax), %rdx
	movq	-56(%rbp), %rsi
	movq	-48(%rbp), %rax
	movq	%rax, %rdi
	call	_ZSt22__uninitialized_copy_aIPKiPiiET0_T_S4_S3_RSaIT1_E
	.loc 5 1584 28
	movq	-40(%rbp), %rdx
	movq	%rax, 8(%rdx)
	.loc 5 1588 2
	nop
	movq	-8(%rbp), %rbx
	leave
	.cfi_def_cfa 7, 8
	ret
	.cfi_endproc
.LFE4224:
	.size	_ZNSt6vectorIiSaIiEE19_M_range_initializeIPKiEEvT_S5_St20forward_iterator_tag, .-_ZNSt6vectorIiSaIiEE19_M_range_initializeIPKiEEvT_S5_St20forward_iterator_tag
	.section	.text._ZNSt12_Vector_baseIiSaIiEE19_M_get_Tp_allocatorEv,"axG",@progbits,_ZNSt12_Vector_baseIiSaIiEE19_M_get_Tp_allocatorEv,comdat
	.align 2
	.weak	_ZNSt12_Vector_baseIiSaIiEE19_M_get_Tp_allocatorEv
	.type	_ZNSt12_Vector_baseIiSaIiEE19_M_get_Tp_allocatorEv, @function
_ZNSt12_Vector_baseIiSaIiEE19_M_get_Tp_allocatorEv:
.LFB4226:
	.loc 5 276 7
	.cfi_startproc
	endbr64
	pushq	%rbp
	.cfi_def_cfa_offset 16
	.cfi_offset 6, -16
	movq	%rsp, %rbp
	.cfi_def_cfa_register 6
	movq	%rdi, -8(%rbp)
	.loc 5 277 22
	movq	-8(%rbp), %rax
	.loc 5 277 31
	popq	%rbp
	.cfi_def_cfa 7, 8
	ret
	.cfi_endproc
.LFE4226:
	.size	_ZNSt12_Vector_baseIiSaIiEE19_M_get_Tp_allocatorEv, .-_ZNSt12_Vector_baseIiSaIiEE19_M_get_Tp_allocatorEv
	.section	.text._ZSt8_DestroyIPiiEvT_S1_RSaIT0_E,"axG",@progbits,_ZSt8_DestroyIPiiEvT_S1_RSaIT0_E,comdat
	.weak	_ZSt8_DestroyIPiiEvT_S1_RSaIT0_E
	.type	_ZSt8_DestroyIPiiEvT_S1_RSaIT0_E, @function
_ZSt8_DestroyIPiiEvT_S1_RSaIT0_E:
.LFB4227:
	.file 12 "/usr/include/c++/11/bits/alloc_traits.h"
	.loc 12 845 5
	.cfi_startproc
	endbr64
	pushq	%rbp
	.cfi_def_cfa_offset 16
	.cfi_offset 6, -16
	movq	%rsp, %rbp
	.cfi_def_cfa_register 6
	subq	$32, %rsp
	movq	%rdi, -8(%rbp)
	movq	%rsi, -16(%rbp)
	movq	%rdx, -24(%rbp)
	.loc 12 848 15
	movq	-16(%rbp), %rdx
	movq	-8(%rbp), %rax
	movq	%rdx, %rsi
	movq	%rax, %rdi
	call	_ZSt8_DestroyIPiEvT_S1_
	.loc 12 849 5
	nop
	leave
	.cfi_def_cfa 7, 8
	ret
	.cfi_endproc
.LFE4227:
	.size	_ZSt8_DestroyIPiiEvT_S1_RSaIT0_E, .-_ZSt8_DestroyIPiiEvT_S1_RSaIT0_E
	.section	.text._ZNKSt16initializer_listIiE4sizeEv,"axG",@progbits,_ZNKSt16initializer_listIiE4sizeEv,comdat
	.align 2
	.weak	_ZNKSt16initializer_listIiE4sizeEv
	.type	_ZNKSt16initializer_listIiE4sizeEv, @function
_ZNKSt16initializer_listIiE4sizeEv:
.LFB4298:
	.loc 9 71 7
	.cfi_startproc
	endbr64
	pushq	%rbp
	.cfi_def_cfa_offset 16
	.cfi_offset 6, -16
	movq	%rsp, %rbp
	.cfi_def_cfa_register 6
	movq	%rdi, -8(%rbp)
	.loc 9 71 38
	movq	-8(%rbp), %rax
	movq	8(%rax), %rax
	.loc 9 71 46
	popq	%rbp
	.cfi_def_cfa 7, 8
	ret
	.cfi_endproc
.LFE4298:
	.size	_ZNKSt16initializer_listIiE4sizeEv, .-_ZNKSt16initializer_listIiE4sizeEv
	.section	.text._ZNK9__gnu_cxx5__ops15_Iter_less_iterclIPKiS4_EEbT_T0_,"axG",@progbits,_ZNK9__gnu_cxx5__ops15_Iter_less_iterclIPKiS4_EEbT_T0_,comdat
	.align 2
	.weak	_ZNK9__gnu_cxx5__ops15_Iter_less_iterclIPKiS4_EEbT_T0_
	.type	_ZNK9__gnu_cxx5__ops15_Iter_less_iterclIPKiS4_EEbT_T0_, @function
_ZNK9__gnu_cxx5__ops15_Iter_less_iterclIPKiS4_EEbT_T0_:
.LFB4300:
	.loc 2 44 7
	.cfi_startproc
	endbr64
	pushq	%rbp
	.cfi_def_cfa_offset 16
	.cfi_offset 6, -16
	movq	%rsp, %rbp
	.cfi_def_cfa_register 6
	movq	%rdi, -8(%rbp)
	movq	%rsi, -16(%rbp)
	movq	%rdx, -24(%rbp)
	.loc 2 45 23
	movq	-16(%rbp), %rax
	movl	(%rax), %edx
	movq	-24(%rbp), %rax
	movl	(%rax), %eax
	.loc 2 45 26
	cmpl	%eax, %edx
	setl	%al
	.loc 2 45 33
	popq	%rbp
	.cfi_def_cfa 7, 8
	ret
	.cfi_endproc
.LFE4300:
	.size	_ZNK9__gnu_cxx5__ops15_Iter_less_iterclIPKiS4_EEbT_T0_, .-_ZNK9__gnu_cxx5__ops15_Iter_less_iterclIPKiS4_EEbT_T0_
	.section	.text._ZSt13__min_elementIPKiN9__gnu_cxx5__ops15_Iter_less_iterEET_S5_S5_T0_,"axG",@progbits,_ZSt13__min_elementIPKiN9__gnu_cxx5__ops15_Iter_less_iterEET_S5_S5_T0_,comdat
	.weak	_ZSt13__min_elementIPKiN9__gnu_cxx5__ops15_Iter_less_iterEET_S5_S5_T0_
	.type	_ZSt13__min_elementIPKiN9__gnu_cxx5__ops15_Iter_less_iterEET_S5_S5_T0_, @function
_ZSt13__min_elementIPKiN9__gnu_cxx5__ops15_Iter_less_iterEET_S5_S5_T0_:
.LFB4299:
	.loc 7 5617 5
	.cfi_startproc
	endbr64
	pushq	%rbp
	.cfi_def_cfa_offset 16
	.cfi_offset 6, -16
	movq	%rsp, %rbp
	.cfi_def_cfa_register 6
	subq	$48, %rsp
	movq	%rdi, -24(%rbp)
	movq	%rsi, -32(%rbp)
	.loc 7 5620 7
	movq	-24(%rbp), %rax
	cmpq	-32(%rbp), %rax
	jne	.L84
	.loc 7 5621 9
	movq	-24(%rbp), %rax
	jmp	.L85
.L84:
	.loc 7 5622 24
	movq	-24(%rbp), %rax
	movq	%rax, -8(%rbp)
	.loc 7 5623 7
	jmp	.L86
.L87:
	.loc 7 5624 12
	movq	-8(%rbp), %rdx
	movq	-24(%rbp), %rcx
	leaq	-33(%rbp), %rax
	movq	%rcx, %rsi
	movq	%rax, %rdi
	call	_ZNK9__gnu_cxx5__ops15_Iter_less_iterclIPKiS4_EEbT_T0_
	.loc 7 5624 2
	testb	%al, %al
	je	.L86
	.loc 7 5625 13
	movq	-24(%rbp), %rax
	movq	%rax, -8(%rbp)
.L86:
	.loc 7 5623 24
	addq	$4, -24(%rbp)
	movq	-24(%rbp), %rax
	cmpq	-32(%rbp), %rax
	setne	%al
	testb	%al, %al
	jne	.L87
	.loc 7 5626 14
	movq	-8(%rbp), %rax
.L85:
	.loc 7 5627 5
	leave
	.cfi_def_cfa 7, 8
	ret
	.cfi_endproc
.LFE4299:
	.size	_ZSt13__min_elementIPKiN9__gnu_cxx5__ops15_Iter_less_iterEET_S5_S5_T0_, .-_ZSt13__min_elementIPKiN9__gnu_cxx5__ops15_Iter_less_iterEET_S5_S5_T0_
	.section	.text._ZNSt12_Vector_baseIiSaIiEE12_Vector_implC2ERKS0_,"axG",@progbits,_ZNSt12_Vector_baseIiSaIiEE12_Vector_implC5ERKS0_,comdat
	.align 2
	.weak	_ZNSt12_Vector_baseIiSaIiEE12_Vector_implC2ERKS0_
	.type	_ZNSt12_Vector_baseIiSaIiEE12_Vector_implC2ERKS0_, @function
_ZNSt12_Vector_baseIiSaIiEE12_Vector_implC2ERKS0_:
.LFB4302:
	.loc 5 136 2
	.cfi_startproc
	endbr64
	pushq	%rbp
	.cfi_def_cfa_offset 16
	.cfi_offset 6, -16
	movq	%rsp, %rbp
	.cfi_def_cfa_register 6
	subq	$16, %rsp
	movq	%rdi, -8(%rbp)
	movq	%rsi, -16(%rbp)
.LBB17:
	.loc 5 137 22
	movq	-16(%rbp), %rdx
	movq	-8(%rbp), %rax
	movq	%rdx, %rsi
	movq	%rax, %rdi
	call	_ZNSaIiEC2ERKS_
	movq	-8(%rbp), %rax
	movq	%rax, %rdi
	call	_ZNSt12_Vector_baseIiSaIiEE17_Vector_impl_dataC2Ev
.LBE17:
	.loc 5 138 4
	nop
	leave
	.cfi_def_cfa 7, 8
	ret
	.cfi_endproc
.LFE4302:
	.size	_ZNSt12_Vector_baseIiSaIiEE12_Vector_implC2ERKS0_, .-_ZNSt12_Vector_baseIiSaIiEE12_Vector_implC2ERKS0_
	.weak	_ZNSt12_Vector_baseIiSaIiEE12_Vector_implC1ERKS0_
	.set	_ZNSt12_Vector_baseIiSaIiEE12_Vector_implC1ERKS0_,_ZNSt12_Vector_baseIiSaIiEE12_Vector_implC2ERKS0_
	.section	.text._ZNSt12_Vector_baseIiSaIiEE13_M_deallocateEPim,"axG",@progbits,_ZNSt12_Vector_baseIiSaIiEE13_M_deallocateEPim,comdat
	.align 2
	.weak	_ZNSt12_Vector_baseIiSaIiEE13_M_deallocateEPim
	.type	_ZNSt12_Vector_baseIiSaIiEE13_M_deallocateEPim, @function
_ZNSt12_Vector_baseIiSaIiEE13_M_deallocateEPim:
.LFB4304:
	.loc 5 350 7
	.cfi_startproc
	endbr64
	pushq	%rbp
	.cfi_def_cfa_offset 16
	.cfi_offset 6, -16
	movq	%rsp, %rbp
	.cfi_def_cfa_register 6
	subq	$32, %rsp
	movq	%rdi, -8(%rbp)
	movq	%rsi, -16(%rbp)
	movq	%rdx, -24(%rbp)
	.loc 5 353 2
	cmpq	$0, -16(%rbp)
	je	.L91
	.loc 5 354 20
	movq	-8(%rbp), %rax
	.loc 5 354 19
	movq	-24(%rbp), %rdx
	movq	-16(%rbp), %rcx
	movq	%rcx, %rsi
	movq	%rax, %rdi
	call	_ZNSt16allocator_traitsISaIiEE10deallocateERS0_Pim
.L91:
	.loc 5 355 7
	nop
	leave
	.cfi_def_cfa 7, 8
	ret
	.cfi_endproc
.LFE4304:
	.size	_ZNSt12_Vector_baseIiSaIiEE13_M_deallocateEPim, .-_ZNSt12_Vector_baseIiSaIiEE13_M_deallocateEPim
	.section	.text._ZSt19__iterator_categoryIPKiENSt15iterator_traitsIT_E17iterator_categoryERKS3_,"axG",@progbits,_ZSt19__iterator_categoryIPKiENSt15iterator_traitsIT_E17iterator_categoryERKS3_,comdat
	.weak	_ZSt19__iterator_categoryIPKiENSt15iterator_traitsIT_E17iterator_categoryERKS3_
	.type	_ZSt19__iterator_categoryIPKiENSt15iterator_traitsIT_E17iterator_categoryERKS3_, @function
_ZSt19__iterator_categoryIPKiENSt15iterator_traitsIT_E17iterator_categoryERKS3_:
.LFB4305:
	.file 13 "/usr/include/c++/11/bits/stl_iterator_base_types.h"
	.loc 13 238 5
	.cfi_startproc
	endbr64
	pushq	%rbp
	.cfi_def_cfa_offset 16
	.cfi_offset 6, -16
	movq	%rsp, %rbp
	.cfi_def_cfa_register 6
	movq	%rdi, -8(%rbp)
	.loc 13 239 68
	popq	%rbp
	.cfi_def_cfa 7, 8
	ret
	.cfi_endproc
.LFE4305:
	.size	_ZSt19__iterator_categoryIPKiENSt15iterator_traitsIT_E17iterator_categoryERKS3_, .-_ZSt19__iterator_categoryIPKiENSt15iterator_traitsIT_E17iterator_categoryERKS3_
	.section	.text._ZSt10__distanceIPKiENSt15iterator_traitsIT_E15difference_typeES3_S3_St26random_access_iterator_tag,"axG",@progbits,_ZSt10__distanceIPKiENSt15iterator_traitsIT_E15difference_typeES3_S3_St26random_access_iterator_tag,comdat
	.weak	_ZSt10__distanceIPKiENSt15iterator_traitsIT_E15difference_typeES3_S3_St26random_access_iterator_tag
	.type	_ZSt10__distanceIPKiENSt15iterator_traitsIT_E15difference_typeES3_S3_St26random_access_iterator_tag, @function
_ZSt10__distanceIPKiENSt15iterator_traitsIT_E15difference_typeES3_S3_St26random_access_iterator_tag:
.LFB4306:
	.loc 11 98 5
	.cfi_startproc
	endbr64
	pushq	%rbp
	.cfi_def_cfa_offset 16
	.cfi_offset 6, -16
	movq	%rsp, %rbp
	.cfi_def_cfa_register 6
	movq	%rdi, -8(%rbp)
	movq	%rsi, -16(%rbp)
	.loc 11 104 21
	movq	-16(%rbp), %rax
	subq	-8(%rbp), %rax
	.loc 11 104 23
	sarq	$2, %rax
	.loc 11 105 5
	popq	%rbp
	.cfi_def_cfa 7, 8
	ret
	.cfi_endproc
.LFE4306:
	.size	_ZSt10__distanceIPKiENSt15iterator_traitsIT_E15difference_typeES3_S3_St26random_access_iterator_tag, .-_ZSt10__distanceIPKiENSt15iterator_traitsIT_E15difference_typeES3_S3_St26random_access_iterator_tag
	.section	.rodata
	.align 8
.LC5:
	.string	"cannot create std::vector larger than max_size()"
	.section	.text._ZNSt6vectorIiSaIiEE17_S_check_init_lenEmRKS0_,"axG",@progbits,_ZNSt6vectorIiSaIiEE17_S_check_init_lenEmRKS0_,comdat
	.weak	_ZNSt6vectorIiSaIiEE17_S_check_init_lenEmRKS0_
	.type	_ZNSt6vectorIiSaIiEE17_S_check_init_lenEmRKS0_, @function
_ZNSt6vectorIiSaIiEE17_S_check_init_lenEmRKS0_:
.LFB4307:
	.loc 5 1767 7
	.cfi_startproc
	endbr64
	pushq	%rbp
	.cfi_def_cfa_offset 16
	.cfi_offset 6, -16
	movq	%rsp, %rbp
	.cfi_def_cfa_register 6
	pushq	%rbx
	subq	$40, %rsp
	.cfi_offset 3, -24
	movq	%rdi, -40(%rbp)
	movq	%rsi, -48(%rbp)
	.loc 5 1767 7
	movq	%fs:40, %rax
	movq	%rax, -24(%rbp)
	xorl	%eax, %eax
	.loc 5 1769 24
	movq	-48(%rbp), %rdx
	leaq	-25(%rbp), %rax
	movq	%rdx, %rsi
	movq	%rax, %rdi
	call	_ZNSaIiEC1ERKS_
	.loc 5 1769 23
	leaq	-25(%rbp), %rax
	movq	%rax, %rdi
	call	_ZNSt6vectorIiSaIiEE11_S_max_sizeERKS0_
	.loc 5 1769 10
	cmpq	%rax, -40(%rbp)
	seta	%bl
	.loc 5 1769 24
	leaq	-25(%rbp), %rax
	movq	%rax, %rdi
	call	_ZNSaIiED1Ev
	.loc 5 1769 2
	testb	%bl, %bl
	je	.L97
	.loc 5 1770 24
	leaq	.LC5(%rip), %rax
	movq	%rax, %rdi
	call	_ZSt20__throw_length_errorPKc@PLT
.L97:
	.loc 5 1772 9
	movq	-40(%rbp), %rax
	.loc 5 1773 7
	movq	-24(%rbp), %rdx
	subq	%fs:40, %rdx
	je	.L99
	call	__stack_chk_fail@PLT
.L99:
	movq	-8(%rbp), %rbx
	leave
	.cfi_def_cfa 7, 8
	ret
	.cfi_endproc
.LFE4307:
	.size	_ZNSt6vectorIiSaIiEE17_S_check_init_lenEmRKS0_, .-_ZNSt6vectorIiSaIiEE17_S_check_init_lenEmRKS0_
	.section	.text._ZNSt12_Vector_baseIiSaIiEE11_M_allocateEm,"axG",@progbits,_ZNSt12_Vector_baseIiSaIiEE11_M_allocateEm,comdat
	.align 2
	.weak	_ZNSt12_Vector_baseIiSaIiEE11_M_allocateEm
	.type	_ZNSt12_Vector_baseIiSaIiEE11_M_allocateEm, @function
_ZNSt12_Vector_baseIiSaIiEE11_M_allocateEm:
.LFB4308:
	.loc 5 343 7
	.cfi_startproc
	endbr64
	pushq	%rbp
	.cfi_def_cfa_offset 16
	.cfi_offset 6, -16
	movq	%rsp, %rbp
	.cfi_def_cfa_register 6
	subq	$16, %rsp
	movq	%rdi, -8(%rbp)
	movq	%rsi, -16(%rbp)
	.loc 5 346 18
	cmpq	$0, -16(%rbp)
	je	.L101
	.loc 5 346 34 discriminator 1
	movq	-8(%rbp), %rax
	.loc 5 346 33 discriminator 1
	movq	-16(%rbp), %rdx
	movq	%rdx, %rsi
	movq	%rax, %rdi
	call	_ZNSt16allocator_traitsISaIiEE8allocateERS0_m
	.loc 5 346 58 discriminator 1
	jmp	.L103
.L101:
	.loc 5 346 18 discriminator 2
	movl	$0, %eax
.L103:
	.loc 5 347 7 discriminator 5
	leave
	.cfi_def_cfa 7, 8
	ret
	.cfi_endproc
.LFE4308:
	.size	_ZNSt12_Vector_baseIiSaIiEE11_M_allocateEm, .-_ZNSt12_Vector_baseIiSaIiEE11_M_allocateEm
	.section	.text._ZSt22__uninitialized_copy_aIPKiPiiET0_T_S4_S3_RSaIT1_E,"axG",@progbits,_ZSt22__uninitialized_copy_aIPKiPiiET0_T_S4_S3_RSaIT1_E,comdat
	.weak	_ZSt22__uninitialized_copy_aIPKiPiiET0_T_S4_S3_RSaIT1_E
	.type	_ZSt22__uninitialized_copy_aIPKiPiiET0_T_S4_S3_RSaIT1_E, @function
_ZSt22__uninitialized_copy_aIPKiPiiET0_T_S4_S3_RSaIT1_E:
.LFB4309:
	.file 14 "/usr/include/c++/11/bits/stl_uninitialized.h"
	.loc 14 331 5
	.cfi_startproc
	endbr64
	pushq	%rbp
	.cfi_def_cfa_offset 16
	.cfi_offset 6, -16
	movq	%rsp, %rbp
	.cfi_def_cfa_register 6
	subq	$32, %rsp
	movq	%rdi, -8(%rbp)
	movq	%rsi, -16(%rbp)
	movq	%rdx, -24(%rbp)
	movq	%rcx, -32(%rbp)
	.loc 14 333 37
	movq	-24(%rbp), %rdx
	movq	-16(%rbp), %rcx
	movq	-8(%rbp), %rax
	movq	%rcx, %rsi
	movq	%rax, %rdi
	call	_ZSt18uninitialized_copyIPKiPiET0_T_S4_S3_
	.loc 14 333 66
	leave
	.cfi_def_cfa 7, 8
	ret
	.cfi_endproc
.LFE4309:
	.size	_ZSt22__uninitialized_copy_aIPKiPiiET0_T_S4_S3_RSaIT1_E, .-_ZSt22__uninitialized_copy_aIPKiPiiET0_T_S4_S3_RSaIT1_E
	.section	.text._ZSt8_DestroyIPiEvT_S1_,"axG",@progbits,_ZSt8_DestroyIPiEvT_S1_,comdat
	.weak	_ZSt8_DestroyIPiEvT_S1_
	.type	_ZSt8_DestroyIPiEvT_S1_, @function
_ZSt8_DestroyIPiEvT_S1_:
.LFB4310:
	.file 15 "/usr/include/c++/11/bits/stl_construct.h"
	.loc 15 182 5
	.cfi_startproc
	endbr64
	pushq	%rbp
	.cfi_def_cfa_offset 16
	.cfi_offset 6, -16
	movq	%rsp, %rbp
	.cfi_def_cfa_register 6
	subq	$16, %rsp
	movq	%rdi, -8(%rbp)
	movq	%rsi, -16(%rbp)
	.loc 15 192 37
	call	_ZSt21is_constant_evaluatedv
	.loc 15 192 7
	testb	%al, %al
	je	.L107
	.loc 15 193 39
	movq	-16(%rbp), %rdx
	movq	-8(%rbp), %rax
	movq	%rdx, %rsi
	movq	%rax, %rdi
	call	_ZNSt12_Destroy_auxILb0EE9__destroyIPiEEvT_S3_
	.loc 15 193 55
	jmp	.L106
.L107:
	.loc 15 196 11
	movq	-16(%rbp), %rdx
	movq	-8(%rbp), %rax
	movq	%rdx, %rsi
	movq	%rax, %rdi
	call	_ZNSt12_Destroy_auxILb1EE9__destroyIPiEEvT_S3_
.L106:
	.loc 15 197 5
	leave
	.cfi_def_cfa 7, 8
	ret
	.cfi_endproc
.LFE4310:
	.size	_ZSt8_DestroyIPiEvT_S1_, .-_ZSt8_DestroyIPiEvT_S1_
	.section	.text._ZNSaIiEC2ERKS_,"axG",@progbits,_ZNSaIiEC5ERKS_,comdat
	.align 2
	.weak	_ZNSaIiEC2ERKS_
	.type	_ZNSaIiEC2ERKS_, @function
_ZNSaIiEC2ERKS_:
.LFB4376:
	.loc 8 159 7
	.cfi_startproc
	endbr64
	pushq	%rbp
	.cfi_def_cfa_offset 16
	.cfi_offset 6, -16
	movq	%rsp, %rbp
	.cfi_def_cfa_register 6
	subq	$16, %rsp
	movq	%rdi, -8(%rbp)
	movq	%rsi, -16(%rbp)
.LBB18:
	.loc 8 160 34
	movq	-16(%rbp), %rdx
	movq	-8(%rbp), %rax
	movq	%rdx, %rsi
	movq	%rax, %rdi
	call	_ZN9__gnu_cxx13new_allocatorIiEC2ERKS1_
.LBE18:
	.loc 8 160 38
	nop
	leave
	.cfi_def_cfa 7, 8
	ret
	.cfi_endproc
.LFE4376:
	.size	_ZNSaIiEC2ERKS_, .-_ZNSaIiEC2ERKS_
	.weak	_ZNSaIiEC1ERKS_
	.set	_ZNSaIiEC1ERKS_,_ZNSaIiEC2ERKS_
	.section	.text._ZNSt12_Vector_baseIiSaIiEE17_Vector_impl_dataC2Ev,"axG",@progbits,_ZNSt12_Vector_baseIiSaIiEE17_Vector_impl_dataC5Ev,comdat
	.align 2
	.weak	_ZNSt12_Vector_baseIiSaIiEE17_Vector_impl_dataC2Ev
	.type	_ZNSt12_Vector_baseIiSaIiEE17_Vector_impl_dataC2Ev, @function
_ZNSt12_Vector_baseIiSaIiEE17_Vector_impl_dataC2Ev:
.LFB4379:
	.loc 5 97 2
	.cfi_startproc
	endbr64
	pushq	%rbp
	.cfi_def_cfa_offset 16
	.cfi_offset 6, -16
	movq	%rsp, %rbp
	.cfi_def_cfa_register 6
	movq	%rdi, -8(%rbp)
.LBB19:
	.loc 5 98 4
	movq	-8(%rbp), %rax
	movq	$0, (%rax)
	.loc 5 98 16
	movq	-8(%rbp), %rax
	movq	$0, 8(%rax)
	.loc 5 98 29
	movq	-8(%rbp), %rax
	movq	$0, 16(%rax)
.LBE19:
	.loc 5 99 4
	nop
	popq	%rbp
	.cfi_def_cfa 7, 8
	ret
	.cfi_endproc
.LFE4379:
	.size	_ZNSt12_Vector_baseIiSaIiEE17_Vector_impl_dataC2Ev, .-_ZNSt12_Vector_baseIiSaIiEE17_Vector_impl_dataC2Ev
	.weak	_ZNSt12_Vector_baseIiSaIiEE17_Vector_impl_dataC1Ev
	.set	_ZNSt12_Vector_baseIiSaIiEE17_Vector_impl_dataC1Ev,_ZNSt12_Vector_baseIiSaIiEE17_Vector_impl_dataC2Ev
	.section	.text._ZNSt16allocator_traitsISaIiEE10deallocateERS0_Pim,"axG",@progbits,_ZNSt16allocator_traitsISaIiEE10deallocateERS0_Pim,comdat
	.weak	_ZNSt16allocator_traitsISaIiEE10deallocateERS0_Pim
	.type	_ZNSt16allocator_traitsISaIiEE10deallocateERS0_Pim, @function
_ZNSt16allocator_traitsISaIiEE10deallocateERS0_Pim:
.LFB4381:
	.loc 12 495 7
	.cfi_startproc
	endbr64
	pushq	%rbp
	.cfi_def_cfa_offset 16
	.cfi_offset 6, -16
	movq	%rsp, %rbp
	.cfi_def_cfa_register 6
	subq	$64, %rsp
	movq	%rdi, -40(%rbp)
	movq	%rsi, -48(%rbp)
	movq	%rdx, -56(%rbp)
	movq	-40(%rbp), %rax
	movq	%rax, -24(%rbp)
	movq	-48(%rbp), %rax
	movq	%rax, -16(%rbp)
	movq	-56(%rbp), %rax
	movq	%rax, -8(%rbp)
.LBB20:
.LBB21:
	.loc 8 193 32
	call	_ZSt21is_constant_evaluatedv
	.loc 8 193 2
	testb	%al, %al
	je	.L112
	.loc 8 195 23
	movq	-16(%rbp), %rax
	movq	%rax, %rdi
	call	_ZdlPv@PLT
	.loc 8 196 6
	jmp	.L113
.L112:
	.loc 8 199 35
	movq	-8(%rbp), %rdx
	movq	-16(%rbp), %rcx
	movq	-24(%rbp), %rax
	movq	%rcx, %rsi
	movq	%rax, %rdi
	call	_ZN9__gnu_cxx13new_allocatorIiE10deallocateEPim
.LBE21:
.LBE20:
	.loc 12 496 35
	nop
.L113:
	nop
	leave
	.cfi_def_cfa 7, 8
	ret
	.cfi_endproc
.LFE4381:
	.size	_ZNSt16allocator_traitsISaIiEE10deallocateERS0_Pim, .-_ZNSt16allocator_traitsISaIiEE10deallocateERS0_Pim
	.section	.text._ZNSt16allocator_traitsISaIiEE8max_sizeERKS0_,"axG",@progbits,_ZNSt16allocator_traitsISaIiEE8max_sizeERKS0_,comdat
	.weak	_ZNSt16allocator_traitsISaIiEE8max_sizeERKS0_
	.type	_ZNSt16allocator_traitsISaIiEE8max_sizeERKS0_, @function
_ZNSt16allocator_traitsISaIiEE8max_sizeERKS0_:
.LFB4383:
	.loc 12 547 7
	.cfi_startproc
	endbr64
	pushq	%rbp
	.cfi_def_cfa_offset 16
	.cfi_offset 6, -16
	movq	%rsp, %rbp
	.cfi_def_cfa_register 6
	movq	%rdi, -8(%rbp)
	.loc 12 552 39
	movabsq	$4611686018427387903, %rax
	.loc 12 554 7
	popq	%rbp
	.cfi_def_cfa 7, 8
	ret
	.cfi_endproc
.LFE4383:
	.size	_ZNSt16allocator_traitsISaIiEE8max_sizeERKS0_, .-_ZNSt16allocator_traitsISaIiEE8max_sizeERKS0_
	.section	.text._ZNSt6vectorIiSaIiEE11_S_max_sizeERKS0_,"axG",@progbits,_ZNSt6vectorIiSaIiEE11_S_max_sizeERKS0_,comdat
	.weak	_ZNSt6vectorIiSaIiEE11_S_max_sizeERKS0_
	.type	_ZNSt6vectorIiSaIiEE11_S_max_sizeERKS0_, @function
_ZNSt6vectorIiSaIiEE11_S_max_sizeERKS0_:
.LFB4382:
	.loc 5 1776 7
	.cfi_startproc
	endbr64
	pushq	%rbp
	.cfi_def_cfa_offset 16
	.cfi_offset 6, -16
	movq	%rsp, %rbp
	.cfi_def_cfa_register 6
	subq	$48, %rsp
	movq	%rdi, -40(%rbp)
	.loc 5 1776 7
	movq	%fs:40, %rax
	movq	%rax, -8(%rbp)
	xorl	%eax, %eax
	.loc 5 1781 15
	movabsq	$2305843009213693951, %rax
	movq	%rax, -24(%rbp)
	.loc 5 1783 51
	movq	-40(%rbp), %rax
	movq	%rax, %rdi
	call	_ZNSt16allocator_traitsISaIiEE8max_sizeERKS0_
	.loc 5 1783 15
	movq	%rax, -16(%rbp)
	.loc 5 1784 19
	leaq	-16(%rbp), %rdx
	leaq	-24(%rbp), %rax
	movq	%rdx, %rsi
	movq	%rax, %rdi
	call	_ZSt3minImERKT_S2_S2_
	.loc 5 1784 41
	movq	(%rax), %rax
	.loc 5 1785 7
	movq	-8(%rbp), %rdx
	subq	%fs:40, %rdx
	je	.L118
	call	__stack_chk_fail@PLT
.L118:
	leave
	.cfi_def_cfa 7, 8
	ret
	.cfi_endproc
.LFE4382:
	.size	_ZNSt6vectorIiSaIiEE11_S_max_sizeERKS0_, .-_ZNSt6vectorIiSaIiEE11_S_max_sizeERKS0_
	.section	.text._ZNSt16allocator_traitsISaIiEE8allocateERS0_m,"axG",@progbits,_ZNSt16allocator_traitsISaIiEE8allocateERS0_m,comdat
	.weak	_ZNSt16allocator_traitsISaIiEE8allocateERS0_m
	.type	_ZNSt16allocator_traitsISaIiEE8allocateERS0_m, @function
_ZNSt16allocator_traitsISaIiEE8allocateERS0_m:
.LFB4384:
	.loc 12 463 7
	.cfi_startproc
	endbr64
	pushq	%rbp
	.cfi_def_cfa_offset 16
	.cfi_offset 6, -16
	movq	%rsp, %rbp
	.cfi_def_cfa_register 6
	subq	$32, %rsp
	movq	%rdi, -24(%rbp)
	movq	%rsi, -32(%rbp)
	movq	-24(%rbp), %rax
	movq	%rax, -16(%rbp)
	movq	-32(%rbp), %rax
	movq	%rax, -8(%rbp)
.LBB22:
.LBB23:
	.loc 8 182 32
	call	_ZSt21is_constant_evaluatedv
	.loc 8 182 2
	testb	%al, %al
	je	.L120
	.loc 8 183 43
	movq	-8(%rbp), %rax
	salq	$2, %rax
	movq	%rax, %rdi
	call	_Znwm@PLT
	.loc 8 183 62
	jmp	.L121
.L120:
	.loc 8 185 40
	movq	-8(%rbp), %rcx
	movq	-16(%rbp), %rax
	movl	$0, %edx
	movq	%rcx, %rsi
	movq	%rax, %rdi
	call	_ZN9__gnu_cxx13new_allocatorIiE8allocateEmPKv
	.loc 8 185 47
	nop
.L121:
.LBE23:
.LBE22:
	.loc 12 464 35
	leave
	.cfi_def_cfa 7, 8
	ret
	.cfi_endproc
.LFE4384:
	.size	_ZNSt16allocator_traitsISaIiEE8allocateERS0_m, .-_ZNSt16allocator_traitsISaIiEE8allocateERS0_m
	.section	.text._ZSt18uninitialized_copyIPKiPiET0_T_S4_S3_,"axG",@progbits,_ZSt18uninitialized_copyIPKiPiET0_T_S4_S3_,comdat
	.weak	_ZSt18uninitialized_copyIPKiPiET0_T_S4_S3_
	.type	_ZSt18uninitialized_copyIPKiPiET0_T_S4_S3_, @function
_ZSt18uninitialized_copyIPKiPiET0_T_S4_S3_:
.LFB4385:
	.loc 14 126 5
	.cfi_startproc
	endbr64
	pushq	%rbp
	.cfi_def_cfa_offset 16
	.cfi_offset 6, -16
	movq	%rsp, %rbp
	.cfi_def_cfa_register 6
	subq	$48, %rsp
	movq	%rdi, -24(%rbp)
	movq	%rsi, -32(%rbp)
	movq	%rdx, -40(%rbp)
	.loc 14 145 18
	movb	$1, -1(%rbp)
	.loc 14 151 15
	movq	-40(%rbp), %rdx
	movq	-32(%rbp), %rcx
	movq	-24(%rbp), %rax
	movq	%rcx, %rsi
	movq	%rax, %rdi
	call	_ZNSt20__uninitialized_copyILb1EE13__uninit_copyIPKiPiEET0_T_S6_S5_
	.loc 14 152 5
	leave
	.cfi_def_cfa 7, 8
	ret
	.cfi_endproc
.LFE4385:
	.size	_ZSt18uninitialized_copyIPKiPiET0_T_S4_S3_, .-_ZSt18uninitialized_copyIPKiPiET0_T_S4_S3_
	.section	.text._ZNSt12_Destroy_auxILb0EE9__destroyIPiEEvT_S3_,"axG",@progbits,_ZNSt12_Destroy_auxILb0EE9__destroyIPiEEvT_S3_,comdat
	.weak	_ZNSt12_Destroy_auxILb0EE9__destroyIPiEEvT_S3_
	.type	_ZNSt12_Destroy_auxILb0EE9__destroyIPiEEvT_S3_, @function
_ZNSt12_Destroy_auxILb0EE9__destroyIPiEEvT_S3_:
.LFB4387:
	.loc 15 160 2
	.cfi_startproc
	endbr64
	pushq	%rbp
	.cfi_def_cfa_offset 16
	.cfi_offset 6, -16
	movq	%rsp, %rbp
	.cfi_def_cfa_register 6
	subq	$16, %rsp
	movq	%rdi, -8(%rbp)
	movq	%rsi, -16(%rbp)
	.loc 15 162 4
	jmp	.L126
.L127:
	.loc 15 163 19 discriminator 2
	movq	-8(%rbp), %rax
	movq	%rax, %rdi
	call	_ZSt11__addressofIiEPT_RS0_
	movq	%rax, %rdi
	call	_ZSt8_DestroyIiEvPT_
	.loc 15 162 4 discriminator 2
	addq	$4, -8(%rbp)
.L126:
	.loc 15 162 19 discriminator 1
	movq	-8(%rbp), %rax
	cmpq	-16(%rbp), %rax
	jne	.L127
	.loc 15 164 2
	nop
	nop
	leave
	.cfi_def_cfa 7, 8
	ret
	.cfi_endproc
.LFE4387:
	.size	_ZNSt12_Destroy_auxILb0EE9__destroyIPiEEvT_S3_, .-_ZNSt12_Destroy_auxILb0EE9__destroyIPiEEvT_S3_
	.section	.text._ZNSt12_Destroy_auxILb1EE9__destroyIPiEEvT_S3_,"axG",@progbits,_ZNSt12_Destroy_auxILb1EE9__destroyIPiEEvT_S3_,comdat
	.weak	_ZNSt12_Destroy_auxILb1EE9__destroyIPiEEvT_S3_
	.type	_ZNSt12_Destroy_auxILb1EE9__destroyIPiEEvT_S3_, @function
_ZNSt12_Destroy_auxILb1EE9__destroyIPiEEvT_S3_:
.LFB4388:
	.loc 15 172 9
	.cfi_startproc
	endbr64
	pushq	%rbp
	.cfi_def_cfa_offset 16
	.cfi_offset 6, -16
	movq	%rsp, %rbp
	.cfi_def_cfa_register 6
	movq	%rdi, -8(%rbp)
	movq	%rsi, -16(%rbp)
	.loc 15 172 57
	nop
	popq	%rbp
	.cfi_def_cfa 7, 8
	ret
	.cfi_endproc
.LFE4388:
	.size	_ZNSt12_Destroy_auxILb1EE9__destroyIPiEEvT_S3_, .-_ZNSt12_Destroy_auxILb1EE9__destroyIPiEEvT_S3_
	.section	.text._ZN9__gnu_cxx13new_allocatorIiEC2ERKS1_,"axG",@progbits,_ZN9__gnu_cxx13new_allocatorIiEC5ERKS1_,comdat
	.align 2
	.weak	_ZN9__gnu_cxx13new_allocatorIiEC2ERKS1_
	.type	_ZN9__gnu_cxx13new_allocatorIiEC2ERKS1_, @function
_ZN9__gnu_cxx13new_allocatorIiEC2ERKS1_:
.LFB4459:
	.loc 10 82 7
	.cfi_startproc
	endbr64
	pushq	%rbp
	.cfi_def_cfa_offset 16
	.cfi_offset 6, -16
	movq	%rsp, %rbp
	.cfi_def_cfa_register 6
	movq	%rdi, -8(%rbp)
	movq	%rsi, -16(%rbp)
	.loc 10 82 54
	nop
	popq	%rbp
	.cfi_def_cfa 7, 8
	ret
	.cfi_endproc
.LFE4459:
	.size	_ZN9__gnu_cxx13new_allocatorIiEC2ERKS1_, .-_ZN9__gnu_cxx13new_allocatorIiEC2ERKS1_
	.weak	_ZN9__gnu_cxx13new_allocatorIiEC1ERKS1_
	.set	_ZN9__gnu_cxx13new_allocatorIiEC1ERKS1_,_ZN9__gnu_cxx13new_allocatorIiEC2ERKS1_
	.section	.text._ZNSt20__uninitialized_copyILb1EE13__uninit_copyIPKiPiEET0_T_S6_S5_,"axG",@progbits,_ZNSt20__uninitialized_copyILb1EE13__uninit_copyIPKiPiEET0_T_S6_S5_,comdat
	.weak	_ZNSt20__uninitialized_copyILb1EE13__uninit_copyIPKiPiEET0_T_S6_S5_
	.type	_ZNSt20__uninitialized_copyILb1EE13__uninit_copyIPKiPiEET0_T_S6_S5_, @function
_ZNSt20__uninitialized_copyILb1EE13__uninit_copyIPKiPiEET0_T_S6_S5_:
.LFB4463:
	.loc 14 108 9
	.cfi_startproc
	endbr64
	pushq	%rbp
	.cfi_def_cfa_offset 16
	.cfi_offset 6, -16
	movq	%rsp, %rbp
	.cfi_def_cfa_register 6
	subq	$32, %rsp
	movq	%rdi, -8(%rbp)
	movq	%rsi, -16(%rbp)
	movq	%rdx, -24(%rbp)
	.loc 14 110 27
	movq	-24(%rbp), %rdx
	movq	-16(%rbp), %rcx
	movq	-8(%rbp), %rax
	movq	%rcx, %rsi
	movq	%rax, %rdi
	call	_ZSt4copyIPKiPiET0_T_S4_S3_
	.loc 14 110 56
	leave
	.cfi_def_cfa 7, 8
	ret
	.cfi_endproc
.LFE4463:
	.size	_ZNSt20__uninitialized_copyILb1EE13__uninit_copyIPKiPiEET0_T_S6_S5_, .-_ZNSt20__uninitialized_copyILb1EE13__uninit_copyIPKiPiEET0_T_S6_S5_
	.section	.text._ZSt11__addressofIiEPT_RS0_,"axG",@progbits,_ZSt11__addressofIiEPT_RS0_,comdat
	.weak	_ZSt11__addressofIiEPT_RS0_
	.type	_ZSt11__addressofIiEPT_RS0_, @function
_ZSt11__addressofIiEPT_RS0_:
.LFB4464:
	.loc 6 49 5
	.cfi_startproc
	endbr64
	pushq	%rbp
	.cfi_def_cfa_offset 16
	.cfi_offset 6, -16
	movq	%rsp, %rbp
	.cfi_def_cfa_register 6
	movq	%rdi, -8(%rbp)
	.loc 6 50 37
	movq	-8(%rbp), %rax
	.loc 6 50 40
	popq	%rbp
	.cfi_def_cfa 7, 8
	ret
	.cfi_endproc
.LFE4464:
	.size	_ZSt11__addressofIiEPT_RS0_, .-_ZSt11__addressofIiEPT_RS0_
	.section	.text._ZSt8_DestroyIiEvPT_,"axG",@progbits,_ZSt8_DestroyIiEvPT_,comdat
	.weak	_ZSt8_DestroyIiEvPT_
	.type	_ZSt8_DestroyIiEvPT_, @function
_ZSt8_DestroyIiEvPT_:
.LFB4465:
	.loc 15 146 5
	.cfi_startproc
	endbr64
	pushq	%rbp
	.cfi_def_cfa_offset 16
	.cfi_offset 6, -16
	movq	%rsp, %rbp
	.cfi_def_cfa_register 6
	subq	$16, %rsp
	movq	%rdi, -8(%rbp)
	.loc 15 149 22
	movq	-8(%rbp), %rax
	movq	%rax, %rdi
	call	_ZSt10destroy_atIiEvPT_
	.loc 15 153 5
	nop
	leave
	.cfi_def_cfa 7, 8
	ret
	.cfi_endproc
.LFE4465:
	.size	_ZSt8_DestroyIiEvPT_, .-_ZSt8_DestroyIiEvPT_
	.section	.text._ZN9__gnu_cxx13new_allocatorIiE10deallocateEPim,"axG",@progbits,_ZN9__gnu_cxx13new_allocatorIiE10deallocateEPim,comdat
	.align 2
	.weak	_ZN9__gnu_cxx13new_allocatorIiE10deallocateEPim
	.type	_ZN9__gnu_cxx13new_allocatorIiE10deallocateEPim, @function
_ZN9__gnu_cxx13new_allocatorIiE10deallocateEPim:
.LFB4501:
	.loc 10 132 7
	.cfi_startproc
	endbr64
	pushq	%rbp
	.cfi_def_cfa_offset 16
	.cfi_offset 6, -16
	movq	%rsp, %rbp
	.cfi_def_cfa_register 6
	subq	$32, %rsp
	movq	%rdi, -8(%rbp)
	movq	%rsi, -16(%rbp)
	movq	%rdx, -24(%rbp)
	.loc 10 145 19
	movq	-24(%rbp), %rax
	leaq	0(,%rax,4), %rdx
	movq	-16(%rbp), %rax
	movq	%rdx, %rsi
	movq	%rax, %rdi
	call	_ZdlPvm@PLT
	.loc 10 150 7
	leave
	.cfi_def_cfa 7, 8
	ret
	.cfi_endproc
.LFE4501:
	.size	_ZN9__gnu_cxx13new_allocatorIiE10deallocateEPim, .-_ZN9__gnu_cxx13new_allocatorIiE10deallocateEPim
	.section	.text._ZNK9__gnu_cxx13new_allocatorIiE11_M_max_sizeEv,"axG",@progbits,_ZNK9__gnu_cxx13new_allocatorIiE11_M_max_sizeEv,comdat
	.align 2
	.weak	_ZNK9__gnu_cxx13new_allocatorIiE11_M_max_sizeEv
	.type	_ZNK9__gnu_cxx13new_allocatorIiE11_M_max_sizeEv, @function
_ZNK9__gnu_cxx13new_allocatorIiE11_M_max_sizeEv:
.LFB4503:
	.loc 10 197 7
	.cfi_startproc
	endbr64
	pushq	%rbp
	.cfi_def_cfa_offset 16
	.cfi_offset 6, -16
	movq	%rsp, %rbp
	.cfi_def_cfa_register 6
	movq	%rdi, -8(%rbp)
	.loc 10 200 54
	movabsq	$2305843009213693951, %rax
	.loc 10 204 7
	popq	%rbp
	.cfi_def_cfa 7, 8
	ret
	.cfi_endproc
.LFE4503:
	.size	_ZNK9__gnu_cxx13new_allocatorIiE11_M_max_sizeEv, .-_ZNK9__gnu_cxx13new_allocatorIiE11_M_max_sizeEv
	.section	.text._ZN9__gnu_cxx13new_allocatorIiE8allocateEmPKv,"axG",@progbits,_ZN9__gnu_cxx13new_allocatorIiE8allocateEmPKv,comdat
	.align 2
	.weak	_ZN9__gnu_cxx13new_allocatorIiE8allocateEmPKv
	.type	_ZN9__gnu_cxx13new_allocatorIiE8allocateEmPKv, @function
_ZN9__gnu_cxx13new_allocatorIiE8allocateEmPKv:
.LFB4502:
	.loc 10 103 7
	.cfi_startproc
	endbr64
	pushq	%rbp
	.cfi_def_cfa_offset 16
	.cfi_offset 6, -16
	movq	%rsp, %rbp
	.cfi_def_cfa_register 6
	subq	$32, %rsp
	movq	%rdi, -8(%rbp)
	movq	%rsi, -16(%rbp)
	movq	%rdx, -24(%rbp)
	.loc 10 111 46
	movq	-8(%rbp), %rax
	movq	%rax, %rdi
	call	_ZNK9__gnu_cxx13new_allocatorIiE11_M_max_sizeEv
	.loc 10 111 27
	cmpq	%rax, -16(%rbp)
	seta	%al
	.loc 10 111 22
	movzbl	%al, %eax
	testq	%rax, %rax
	setne	%al
	.loc 10 111 2
	testb	%al, %al
	je	.L140
	.loc 10 115 6
	movabsq	$4611686018427387903, %rax
	cmpq	%rax, -16(%rbp)
	jbe	.L141
	.loc 10 116 41
	call	_ZSt28__throw_bad_array_new_lengthv@PLT
.L141:
	.loc 10 117 28
	call	_ZSt17__throw_bad_allocv@PLT
.L140:
	.loc 10 127 41
	movq	-16(%rbp), %rax
	salq	$2, %rax
	movq	%rax, %rdi
	call	_Znwm@PLT
	.loc 10 127 60
	nop
	.loc 10 128 7
	leave
	.cfi_def_cfa 7, 8
	ret
	.cfi_endproc
.LFE4502:
	.size	_ZN9__gnu_cxx13new_allocatorIiE8allocateEmPKv, .-_ZN9__gnu_cxx13new_allocatorIiE8allocateEmPKv
	.section	.text._ZSt4copyIPKiPiET0_T_S4_S3_,"axG",@progbits,_ZSt4copyIPKiPiET0_T_S4_S3_,comdat
	.weak	_ZSt4copyIPKiPiET0_T_S4_S3_
	.type	_ZSt4copyIPKiPiET0_T_S4_S3_, @function
_ZSt4copyIPKiPiET0_T_S4_S3_:
.LFB4504:
	.loc 3 611 5
	.cfi_startproc
	endbr64
	pushq	%rbp
	.cfi_def_cfa_offset 16
	.cfi_offset 6, -16
	movq	%rsp, %rbp
	.cfi_def_cfa_register 6
	pushq	%rbx
	subq	$40, %rsp
	.cfi_offset 3, -24
	movq	%rdi, -24(%rbp)
	movq	%rsi, -32(%rbp)
	movq	%rdx, -40(%rbp)
	.loc 3 620 7
	movq	-32(%rbp), %rax
	movq	%rax, %rdi
	call	_ZSt12__miter_baseIPKiET_S2_
	movq	%rax, %rbx
	movq	-24(%rbp), %rax
	movq	%rax, %rdi
	call	_ZSt12__miter_baseIPKiET_S2_
	movq	%rax, %rcx
	movq	-40(%rbp), %rax
	movq	%rax, %rdx
	movq	%rbx, %rsi
	movq	%rcx, %rdi
	call	_ZSt13__copy_move_aILb0EPKiPiET1_T0_S4_S3_
	.loc 3 621 5
	movq	-8(%rbp), %rbx
	leave
	.cfi_def_cfa 7, 8
	ret
	.cfi_endproc
.LFE4504:
	.size	_ZSt4copyIPKiPiET0_T_S4_S3_, .-_ZSt4copyIPKiPiET0_T_S4_S3_
	.section	.text._ZSt10destroy_atIiEvPT_,"axG",@progbits,_ZSt10destroy_atIiEvPT_,comdat
	.weak	_ZSt10destroy_atIiEvPT_
	.type	_ZSt10destroy_atIiEvPT_, @function
_ZSt10destroy_atIiEvPT_:
.LFB4505:
	.loc 15 80 5
	.cfi_startproc
	endbr64
	pushq	%rbp
	.cfi_def_cfa_offset 16
	.cfi_offset 6, -16
	movq	%rsp, %rbp
	.cfi_def_cfa_register 6
	movq	%rdi, -8(%rbp)
	.loc 15 89 5
	nop
	popq	%rbp
	.cfi_def_cfa 7, 8
	ret
	.cfi_endproc
.LFE4505:
	.size	_ZSt10destroy_atIiEvPT_, .-_ZSt10destroy_atIiEvPT_
	.section	.text._ZSt12__miter_baseIPKiET_S2_,"axG",@progbits,_ZSt12__miter_baseIPKiET_S2_,comdat
	.weak	_ZSt12__miter_baseIPKiET_S2_
	.type	_ZSt12__miter_baseIPKiET_S2_, @function
_ZSt12__miter_baseIPKiET_S2_:
.LFB4522:
	.file 16 "/usr/include/c++/11/bits/cpp_type_traits.h"
	.loc 16 560 5
	.cfi_startproc
	endbr64
	pushq	%rbp
	.cfi_def_cfa_offset 16
	.cfi_offset 6, -16
	movq	%rsp, %rbp
	.cfi_def_cfa_register 6
	movq	%rdi, -8(%rbp)
	.loc 16 561 14
	movq	-8(%rbp), %rax
	.loc 16 561 20
	popq	%rbp
	.cfi_def_cfa 7, 8
	ret
	.cfi_endproc
.LFE4522:
	.size	_ZSt12__miter_baseIPKiET_S2_, .-_ZSt12__miter_baseIPKiET_S2_
	.section	.text._ZSt13__copy_move_aILb0EPKiPiET1_T0_S4_S3_,"axG",@progbits,_ZSt13__copy_move_aILb0EPKiPiET1_T0_S4_S3_,comdat
	.weak	_ZSt13__copy_move_aILb0EPKiPiET1_T0_S4_S3_
	.type	_ZSt13__copy_move_aILb0EPKiPiET1_T0_S4_S3_, @function
_ZSt13__copy_move_aILb0EPKiPiET1_T0_S4_S3_:
.LFB4523:
	.loc 3 527 5
	.cfi_startproc
	endbr64
	pushq	%rbp
	.cfi_def_cfa_offset 16
	.cfi_offset 6, -16
	movq	%rsp, %rbp
	.cfi_def_cfa_register 6
	pushq	%r12
	pushq	%rbx
	subq	$32, %rsp
	.cfi_offset 12, -24
	.cfi_offset 3, -32
	movq	%rdi, -24(%rbp)
	movq	%rsi, -32(%rbp)
	movq	%rdx, -40(%rbp)
	.loc 3 529 31
	movq	-40(%rbp), %rax
	movq	%rax, %rdi
	call	_ZSt12__niter_baseIPiET_S1_
	movq	%rax, %r12
	movq	-32(%rbp), %rax
	movq	%rax, %rdi
	call	_ZSt12__niter_baseIPKiET_S2_
	movq	%rax, %rbx
	movq	-24(%rbp), %rax
	movq	%rax, %rdi
	call	_ZSt12__niter_baseIPKiET_S2_
	movq	%r12, %rdx
	movq	%rbx, %rsi
	movq	%rax, %rdi
	call	_ZSt14__copy_move_a1ILb0EPKiPiET1_T0_S4_S3_
	movq	%rax, %rdx
	leaq	-40(%rbp), %rax
	movq	%rdx, %rsi
	movq	%rax, %rdi
	call	_ZSt12__niter_wrapIPiET_RKS1_S1_
	.loc 3 533 5
	addq	$32, %rsp
	popq	%rbx
	popq	%r12
	popq	%rbp
	.cfi_def_cfa 7, 8
	ret
	.cfi_endproc
.LFE4523:
	.size	_ZSt13__copy_move_aILb0EPKiPiET1_T0_S4_S3_, .-_ZSt13__copy_move_aILb0EPKiPiET1_T0_S4_S3_
	.section	.text._ZSt12__niter_baseIPKiET_S2_,"axG",@progbits,_ZSt12__niter_baseIPKiET_S2_,comdat
	.weak	_ZSt12__niter_baseIPKiET_S2_
	.type	_ZSt12__niter_baseIPKiET_S2_, @function
_ZSt12__niter_baseIPKiET_S2_:
.LFB4534:
	.loc 3 313 5
	.cfi_startproc
	endbr64
	pushq	%rbp
	.cfi_def_cfa_offset 16
	.cfi_offset 6, -16
	movq	%rsp, %rbp
	.cfi_def_cfa_register 6
	movq	%rdi, -8(%rbp)
	.loc 3 315 14
	movq	-8(%rbp), %rax
	.loc 3 315 20
	popq	%rbp
	.cfi_def_cfa 7, 8
	ret
	.cfi_endproc
.LFE4534:
	.size	_ZSt12__niter_baseIPKiET_S2_, .-_ZSt12__niter_baseIPKiET_S2_
	.section	.text._ZSt12__niter_baseIPiET_S1_,"axG",@progbits,_ZSt12__niter_baseIPiET_S1_,comdat
	.weak	_ZSt12__niter_baseIPiET_S1_
	.type	_ZSt12__niter_baseIPiET_S1_, @function
_ZSt12__niter_baseIPiET_S1_:
.LFB4535:
	.loc 3 313 5
	.cfi_startproc
	endbr64
	pushq	%rbp
	.cfi_def_cfa_offset 16
	.cfi_offset 6, -16
	movq	%rsp, %rbp
	.cfi_def_cfa_register 6
	movq	%rdi, -8(%rbp)
	.loc 3 315 14
	movq	-8(%rbp), %rax
	.loc 3 315 20
	popq	%rbp
	.cfi_def_cfa 7, 8
	ret
	.cfi_endproc
.LFE4535:
	.size	_ZSt12__niter_baseIPiET_S1_, .-_ZSt12__niter_baseIPiET_S1_
	.section	.text._ZSt14__copy_move_a1ILb0EPKiPiET1_T0_S4_S3_,"axG",@progbits,_ZSt14__copy_move_a1ILb0EPKiPiET1_T0_S4_S3_,comdat
	.weak	_ZSt14__copy_move_a1ILb0EPKiPiET1_T0_S4_S3_
	.type	_ZSt14__copy_move_a1ILb0EPKiPiET1_T0_S4_S3_, @function
_ZSt14__copy_move_a1ILb0EPKiPiET1_T0_S4_S3_:
.LFB4536:
	.loc 3 521 5
	.cfi_startproc
	endbr64
	pushq	%rbp
	.cfi_def_cfa_offset 16
	.cfi_offset 6, -16
	movq	%rsp, %rbp
	.cfi_def_cfa_register 6
	subq	$32, %rsp
	movq	%rdi, -8(%rbp)
	movq	%rsi, -16(%rbp)
	movq	%rdx, -24(%rbp)
	.loc 3 522 42
	movq	-24(%rbp), %rdx
	movq	-16(%rbp), %rcx
	movq	-8(%rbp), %rax
	movq	%rcx, %rsi
	movq	%rax, %rdi
	call	_ZSt14__copy_move_a2ILb0EPKiPiET1_T0_S4_S3_
	.loc 3 522 71
	leave
	.cfi_def_cfa 7, 8
	ret
	.cfi_endproc
.LFE4536:
	.size	_ZSt14__copy_move_a1ILb0EPKiPiET1_T0_S4_S3_, .-_ZSt14__copy_move_a1ILb0EPKiPiET1_T0_S4_S3_
	.section	.text._ZSt12__niter_wrapIPiET_RKS1_S1_,"axG",@progbits,_ZSt12__niter_wrapIPiET_RKS1_S1_,comdat
	.weak	_ZSt12__niter_wrapIPiET_RKS1_S1_
	.type	_ZSt12__niter_wrapIPiET_RKS1_S1_, @function
_ZSt12__niter_wrapIPiET_RKS1_S1_:
.LFB4537:
	.loc 3 335 5
	.cfi_startproc
	endbr64
	pushq	%rbp
	.cfi_def_cfa_offset 16
	.cfi_offset 6, -16
	movq	%rsp, %rbp
	.cfi_def_cfa_register 6
	movq	%rdi, -8(%rbp)
	movq	%rsi, -16(%rbp)
	.loc 3 336 14
	movq	-16(%rbp), %rax
	.loc 3 336 21
	popq	%rbp
	.cfi_def_cfa 7, 8
	ret
	.cfi_endproc
.LFE4537:
	.size	_ZSt12__niter_wrapIPiET_RKS1_S1_, .-_ZSt12__niter_wrapIPiET_RKS1_S1_
	.section	.text._ZSt14__copy_move_a2ILb0EPKiPiET1_T0_S4_S3_,"axG",@progbits,_ZSt14__copy_move_a2ILb0EPKiPiET1_T0_S4_S3_,comdat
	.weak	_ZSt14__copy_move_a2ILb0EPKiPiET1_T0_S4_S3_
	.type	_ZSt14__copy_move_a2ILb0EPKiPiET1_T0_S4_S3_, @function
_ZSt14__copy_move_a2ILb0EPKiPiET1_T0_S4_S3_:
.LFB4538:
	.loc 3 486 5
	.cfi_startproc
	endbr64
	pushq	%rbp
	.cfi_def_cfa_offset 16
	.cfi_offset 6, -16
	movq	%rsp, %rbp
	.cfi_def_cfa_register 6
	subq	$32, %rsp
	movq	%rdi, -8(%rbp)
	movq	%rsi, -16(%rbp)
	movq	%rdx, -24(%rbp)
	.loc 3 490 37
	call	_ZSt21is_constant_evaluatedv
	.loc 3 490 7
	testb	%al, %al
	je	.L159
	.loc 3 492 12
	movq	-24(%rbp), %rdx
	movq	-16(%rbp), %rcx
	movq	-8(%rbp), %rax
	movq	%rcx, %rsi
	movq	%rax, %rdi
	call	_ZNSt11__copy_moveILb0ELb0ESt26random_access_iterator_tagE8__copy_mIPKiPiEET0_T_S7_S6_
	.loc 3 492 38
	jmp	.L160
.L159:
	.loc 3 495 30
	movq	-24(%rbp), %rdx
	movq	-16(%rbp), %rcx
	movq	-8(%rbp), %rax
	movq	%rcx, %rsi
	movq	%rax, %rdi
	call	_ZNSt11__copy_moveILb0ELb1ESt26random_access_iterator_tagE8__copy_mIiEEPT_PKS3_S6_S4_
	.loc 3 495 56
	nop
.L160:
	.loc 3 496 5
	leave
	.cfi_def_cfa 7, 8
	ret
	.cfi_endproc
.LFE4538:
	.size	_ZSt14__copy_move_a2ILb0EPKiPiET1_T0_S4_S3_, .-_ZSt14__copy_move_a2ILb0EPKiPiET1_T0_S4_S3_
	.section	.text._ZNSt11__copy_moveILb0ELb0ESt26random_access_iterator_tagE8__copy_mIPKiPiEET0_T_S7_S6_,"axG",@progbits,_ZNSt11__copy_moveILb0ELb0ESt26random_access_iterator_tagE8__copy_mIPKiPiEET0_T_S7_S6_,comdat
	.weak	_ZNSt11__copy_moveILb0ELb0ESt26random_access_iterator_tagE8__copy_mIPKiPiEET0_T_S7_S6_
	.type	_ZNSt11__copy_moveILb0ELb0ESt26random_access_iterator_tagE8__copy_mIPKiPiEET0_T_S7_S6_, @function
_ZNSt11__copy_moveILb0ELb0ESt26random_access_iterator_tagE8__copy_mIPKiPiEET0_T_S7_S6_:
.LFB4539:
	.loc 3 380 2
	.cfi_startproc
	endbr64
	pushq	%rbp
	.cfi_def_cfa_offset 16
	.cfi_offset 6, -16
	movq	%rsp, %rbp
	.cfi_def_cfa_register 6
	movq	%rdi, -24(%rbp)
	movq	%rsi, -32(%rbp)
	movq	%rdx, -40(%rbp)
.LBB24:
	.loc 3 383 31
	movq	-32(%rbp), %rax
	subq	-24(%rbp), %rax
	.loc 3 383 18
	sarq	$2, %rax
	movq	%rax, -8(%rbp)
	.loc 3 383 4
	jmp	.L162
.L163:
	.loc 3 385 18 discriminator 3
	movq	-24(%rbp), %rax
	movl	(%rax), %edx
	movq	-40(%rbp), %rax
	movl	%edx, (%rax)
	.loc 3 386 8 discriminator 3
	addq	$4, -24(%rbp)
	.loc 3 387 8 discriminator 3
	addq	$4, -40(%rbp)
	.loc 3 383 4 discriminator 3
	subq	$1, -8(%rbp)
.L162:
	.loc 3 383 46 discriminator 1
	cmpq	$0, -8(%rbp)
	jg	.L163
.LBE24:
	.loc 3 389 11
	movq	-40(%rbp), %rax
	.loc 3 390 2
	popq	%rbp
	.cfi_def_cfa 7, 8
	ret
	.cfi_endproc
.LFE4539:
	.size	_ZNSt11__copy_moveILb0ELb0ESt26random_access_iterator_tagE8__copy_mIPKiPiEET0_T_S7_S6_, .-_ZNSt11__copy_moveILb0ELb0ESt26random_access_iterator_tagE8__copy_mIPKiPiEET0_T_S7_S6_
	.section	.text._ZNSt11__copy_moveILb0ELb1ESt26random_access_iterator_tagE8__copy_mIiEEPT_PKS3_S6_S4_,"axG",@progbits,_ZNSt11__copy_moveILb0ELb1ESt26random_access_iterator_tagE8__copy_mIiEEPT_PKS3_S6_S4_,comdat
	.weak	_ZNSt11__copy_moveILb0ELb1ESt26random_access_iterator_tagE8__copy_mIiEEPT_PKS3_S6_S4_
	.type	_ZNSt11__copy_moveILb0ELb1ESt26random_access_iterator_tagE8__copy_mIiEEPT_PKS3_S6_S4_, @function
_ZNSt11__copy_moveILb0ELb1ESt26random_access_iterator_tagE8__copy_mIiEEPT_PKS3_S6_S4_:
.LFB4540:
	.loc 3 420 2
	.cfi_startproc
	endbr64
	pushq	%rbp
	.cfi_def_cfa_offset 16
	.cfi_offset 6, -16
	movq	%rsp, %rbp
	.cfi_def_cfa_register 6
	subq	$48, %rsp
	movq	%rdi, -24(%rbp)
	movq	%rsi, -32(%rbp)
	movq	%rdx, -40(%rbp)
	.loc 3 429 34
	movq	-32(%rbp), %rax
	subq	-24(%rbp), %rax
	.loc 3 429 20
	sarq	$2, %rax
	movq	%rax, -8(%rbp)
	.loc 3 430 4
	cmpq	$0, -8(%rbp)
	je	.L166
	.loc 3 431 57
	movq	-8(%rbp), %rax
	.loc 3 431 23
	leaq	0(,%rax,4), %rdx
	movq	-24(%rbp), %rcx
	movq	-40(%rbp), %rax
	movq	%rcx, %rsi
	movq	%rax, %rdi
	call	memmove@PLT
.L166:
	.loc 3 432 22
	movq	-8(%rbp), %rax
	.loc 3 432 20
	leaq	0(,%rax,4), %rdx
	.loc 3 432 22
	movq	-40(%rbp), %rax
	addq	%rdx, %rax
	.loc 3 433 2
	leave
	.cfi_def_cfa 7, 8
	ret
	.cfi_endproc
.LFE4540:
	.size	_ZNSt11__copy_moveILb0ELb1ESt26random_access_iterator_tagE8__copy_mIiEEPT_PKS3_S6_S4_, .-_ZNSt11__copy_moveILb0ELb1ESt26random_access_iterator_tagE8__copy_mIiEEPT_PKS3_S6_S4_
	.text
	.type	_Z41__static_initialization_and_destruction_0ii, @function
_Z41__static_initialization_and_destruction_0ii:
.LFB4541:
	.loc 4 78 1
	.cfi_startproc
	endbr64
	pushq	%rbp
	.cfi_def_cfa_offset 16
	.cfi_offset 6, -16
	movq	%rsp, %rbp
	.cfi_def_cfa_register 6
	subq	$16, %rsp
	movl	%edi, -4(%rbp)
	movl	%esi, -8(%rbp)
	.loc 4 78 1
	cmpl	$1, -4(%rbp)
	jne	.L170
	.loc 4 78 1 is_stmt 0 discriminator 1
	cmpl	$65535, -8(%rbp)
	jne	.L170
	.file 17 "/usr/include/c++/11/iostream"
	.loc 17 74 25 is_stmt 1
	leaq	_ZStL8__ioinit(%rip), %rax
	movq	%rax, %rdi
	call	_ZNSt8ios_base4InitC1Ev@PLT
	leaq	__dso_handle(%rip), %rax
	movq	%rax, %rdx
	leaq	_ZStL8__ioinit(%rip), %rax
	movq	%rax, %rsi
	movq	_ZNSt8ios_base4InitD1Ev@GOTPCREL(%rip), %rax
	movq	%rax, %rdi
	call	__cxa_atexit@PLT
.L170:
	.loc 4 78 1
	nop
	leave
	.cfi_def_cfa 7, 8
	ret
	.cfi_endproc
.LFE4541:
	.size	_Z41__static_initialization_and_destruction_0ii, .-_Z41__static_initialization_and_destruction_0ii
	.type	_GLOBAL__sub_I_main, @function
_GLOBAL__sub_I_main:
.LFB4542:
	.loc 4 78 1
	.cfi_startproc
	endbr64
	pushq	%rbp
	.cfi_def_cfa_offset 16
	.cfi_offset 6, -16
	movq	%rsp, %rbp
	.cfi_def_cfa_register 6
	.loc 4 78 1
	movl	$65535, %esi
	movl	$1, %edi
	call	_Z41__static_initialization_and_destruction_0ii
	popq	%rbp
	.cfi_def_cfa 7, 8
	ret
	.cfi_endproc
.LFE4542:
	.size	_GLOBAL__sub_I_main, .-_GLOBAL__sub_I_main
	.section	.init_array,"aw"
	.align 8
	.quad	_GLOBAL__sub_I_main
	.text
.Letext0:
	.file 18 "<built-in>"
	.file 19 "/usr/lib/gcc/x86_64-linux-gnu/11/include/stddef.h"
	.file 20 "/usr/include/x86_64-linux-gnu/bits/types/wint_t.h"
	.file 21 "/usr/include/x86_64-linux-gnu/bits/types/__mbstate_t.h"
	.file 22 "/usr/include/x86_64-linux-gnu/bits/types/mbstate_t.h"
	.file 23 "/usr/include/x86_64-linux-gnu/bits/types/__FILE.h"
	.file 24 "/usr/include/x86_64-linux-gnu/bits/types/struct_FILE.h"
	.file 25 "/usr/include/x86_64-linux-gnu/bits/types/FILE.h"
	.file 26 "/usr/include/c++/11/cwchar"
	.file 27 "/usr/include/x86_64-linux-gnu/c++/11/bits/c++config.h"
	.file 28 "/usr/include/c++/11/bits/exception_ptr.h"
	.file 29 "/usr/include/c++/11/concepts"
	.file 30 "/usr/include/c++/11/bits/iterator_concepts.h"
	.file 31 "/usr/include/c++/11/bits/ranges_cmp.h"
	.file 32 "/usr/include/c++/11/compare"
	.file 33 "/usr/include/c++/11/debug/debug.h"
	.file 34 "/usr/include/c++/11/bits/char_traits.h"
	.file 35 "/usr/include/c++/11/cstdint"
	.file 36 "/usr/include/c++/11/clocale"
	.file 37 "/usr/include/c++/11/cstdlib"
	.file 38 "/usr/include/c++/11/numbers"
	.file 39 "/usr/include/c++/11/cstdio"
	.file 40 "/usr/include/c++/11/bits/ios_base.h"
	.file 41 "/usr/include/c++/11/cwctype"
	.file 42 "/usr/include/c++/11/bits/ostream.tcc"
	.file 43 "/usr/include/c++/11/ostream"
	.file 44 "/usr/include/c++/11/iosfwd"
	.file 45 "/usr/include/c++/11/functional"
	.file 46 "/usr/include/c++/11/bits/vector.tcc"
	.file 47 "/usr/include/c++/11/bits/functexcept.h"
	.file 48 "/usr/include/wchar.h"
	.file 49 "/usr/include/x86_64-linux-gnu/bits/types/struct_tm.h"
	.file 50 "/usr/include/c++/11/ext/alloc_traits.h"
	.file 51 "/usr/include/c++/11/bits/ptr_traits.h"
	.file 52 "/usr/include/x86_64-linux-gnu/bits/types.h"
	.file 53 "/usr/include/x86_64-linux-gnu/bits/stdint-intn.h"
	.file 54 "/usr/include/x86_64-linux-gnu/bits/stdint-uintn.h"
	.file 55 "/usr/include/stdint.h"
	.file 56 "/usr/include/locale.h"
	.file 57 "/usr/include/stdlib.h"
	.file 58 "/usr/include/x86_64-linux-gnu/bits/types/__fpos_t.h"
	.file 59 "/usr/include/stdio.h"
	.file 60 "/usr/include/x86_64-linux-gnu/bits/wctype-wchar.h"
	.file 61 "/usr/include/wctype.h"
	.file 62 "/usr/include/c++/11/pstl/execution_defs.h"
	.file 63 "/usr/include/c++/11/new"
	.file 64 "/usr/include/c++/11/bits/algorithmfwd.h"
	.section	.data.rel.local.DW.ref.__gxx_personality_v0,"awG",@progbits,DW.ref.__gxx_personality_v0,comdat
	.align 8
	.type	DW.ref.__gxx_personality_v0, @object
	.size	DW.ref.__gxx_personality_v0, 8
DW.ref.__gxx_personality_v0:
	.quad	__gxx_personality_v0
	.hidden	__dso_handle
	.ident	"GCC: (Ubuntu 11.4.0-1ubuntu1~22.04) 11.4.0"
	.section	.note.GNU-stack,"",@progbits
	.section	.note.gnu.property,"a"
	.align 8
	.long	1f - 0f
	.long	4f - 1f
	.long	5
0:
	.string	"GNU"
1:
	.align 8
	.long	0xc0000002
	.long	3f - 2f
2:
	.long	0x3
3:
	.align 8
4:
